
freertos_bcm2835.elf:     file format elf32-littlearm


Disassembly of section .init:

00008000 <_start>:
    8000:	e59ff018 	ldr	pc, [pc, #24]	; 8020 <reset_handler>
    8004:	e59ff018 	ldr	pc, [pc, #24]	; 8024 <undefined_handler>
    8008:	e59ff018 	ldr	pc, [pc, #24]	; 8028 <swi_handler>
    800c:	e59ff018 	ldr	pc, [pc, #24]	; 802c <prefetch_handler>
    8010:	e59ff018 	ldr	pc, [pc, #24]	; 8030 <data_handler>
    8014:	e59ff018 	ldr	pc, [pc, #24]	; 8034 <unused_handler>
    8018:	e59ff018 	ldr	pc, [pc, #24]	; 8038 <irq_handler>
    801c:	e59ff018 	ldr	pc, [pc, #24]	; 803c <fiq_handler>

00008020 <reset_handler>:
    8020:	00008040 	andeq	r8, r0, r0, asr #32

00008024 <undefined_handler>:
    8024:	00010000 	andeq	r0, r1, r0

00008028 <swi_handler>:
    8028:	000106c8 	andeq	r0, r1, r8, asr #13

0000802c <prefetch_handler>:
    802c:	00010004 	andeq	r0, r1, r4

00008030 <data_handler>:
    8030:	00010008 	andeq	r0, r1, r8

00008034 <unused_handler>:
    8034:	0001000c 	andeq	r0, r1, ip

00008038 <irq_handler>:
    8038:	00010770 	andeq	r0, r1, r0, ror r7

0000803c <fiq_handler>:
    803c:	00010010 	andeq	r0, r1, r0, lsl r0

00008040 <reset>:
    8040:	e3a00902 	mov	r0, #32768	; 0x8000
    8044:	e3a01000 	mov	r1, #0
    8048:	e8b003fc 	ldm	r0!, {r2, r3, r4, r5, r6, r7, r8, r9}
    804c:	e8a103fc 	stmia	r1!, {r2, r3, r4, r5, r6, r7, r8, r9}
    8050:	e8b003fc 	ldm	r0!, {r2, r3, r4, r5, r6, r7, r8, r9}
    8054:	e8a103fc 	stmia	r1!, {r2, r3, r4, r5, r6, r7, r8, r9}
    8058:	e3a000d2 	mov	r0, #210	; 0xd2
    805c:	e121f000 	msr	CPSR_c, r0
    8060:	e3a0d902 	mov	sp, #32768	; 0x8000
    8064:	e3a000d1 	mov	r0, #209	; 0xd1
    8068:	e121f000 	msr	CPSR_c, r0
    806c:	e3a0d901 	mov	sp, #16384	; 0x4000
    8070:	e3a000d3 	mov	r0, #211	; 0xd3
    8074:	e121f000 	msr	CPSR_c, r0
    8078:	e3a0d302 	mov	sp, #134217728	; 0x8000000
    807c:	e59f0018 	ldr	r0, [pc, #24]	; 809c <zero_loop+0x14>
    8080:	e59f1018 	ldr	r1, [pc, #24]	; 80a0 <zero_loop+0x18>
    8084:	e3a02000 	mov	r2, #0

00008088 <zero_loop>:
    8088:	e1500001 	cmp	r0, r1
    808c:	b4802004 	strlt	r2, [r0], #4
    8090:	bafffffc 	blt	8088 <zero_loop>
    8094:	eb00201d 	bl	10110 <irqBlock>
    8098:	ea002910 	b	124e0 <main>
    809c:	000125c8 	andeq	r2, r1, r8, asr #11
    80a0:	000139b0 			; <UNDEFINED> instruction: 0x000139b0

Disassembly of section .text:

00010000 <undefined_instruction>:
   10000:	eafffffe 	b	10000 <undefined_instruction>

00010004 <prefetch_abort>:
   10004:	eafffffe 	b	10004 <prefetch_abort>

00010008 <data_abort>:
   10008:	eafffffe 	b	10008 <data_abort>

0001000c <unused>:
   1000c:	eafffffe 	b	1000c <unused>

00010010 <fiq>:
   10010:	eafffffe 	b	10010 <fiq>

00010014 <hang>:
   10014:	eafffffe 	b	10014 <hang>

00010018 <PUT32>:
   10018:	e5801000 	str	r1, [r0]
   1001c:	e12fff1e 	bx	lr

00010020 <GET32>:
   10020:	e5900000 	ldr	r0, [r0]
   10024:	e12fff1e 	bx	lr

00010028 <handleRange>:
   10028:	e92d41f0 	push	{r4, r5, r6, r7, r8, lr}
   1002c:	e2504000 	subs	r4, r0, #0
   10030:	e1a06001 	mov	r6, r1
   10034:	08bd81f0 	popeq	{r4, r5, r6, r7, r8, pc}
   10038:	e59f5038 	ldr	r5, [pc, #56]	; 10078 <handleRange+0x50>
   1003c:	e3a08001 	mov	r8, #1
   10040:	e1a07005 	mov	r7, r5
   10044:	e16f0f14 	clz	r0, r4
   10048:	e260001f 	rsb	r0, r0, #31
   1004c:	e1c44018 	bic	r4, r4, r8, lsl r0
   10050:	e0800006 	add	r0, r0, r6
   10054:	e7953180 	ldr	r3, [r5, r0, lsl #3]
   10058:	e0872180 	add	r2, r7, r0, lsl #3
   1005c:	e3530000 	cmp	r3, #0
   10060:	0a000001 	beq	1006c <handleRange+0x44>
   10064:	e5921004 	ldr	r1, [r2, #4]
   10068:	e12fff33 	blx	r3
   1006c:	e3540000 	cmp	r4, #0
   10070:	1afffff3 	bne	10044 <handleRange+0x1c>
   10074:	e8bd81f0 	pop	{r4, r5, r6, r7, r8, pc}
   10078:	000125c8 	andeq	r2, r1, r8, asr #11

0001007c <irqHandler>:
   1007c:	e59f307c 	ldr	r3, [pc, #124]	; 10100 <irqHandler+0x84>
   10080:	e92d4010 	push	{r4, lr}
   10084:	e5934200 	ldr	r4, [r3, #512]	; 0x200
   10088:	e3140c01 	tst	r4, #256	; 0x100
   1008c:	1a000014 	bne	100e4 <irqHandler+0x68>
   10090:	e3140c02 	tst	r4, #512	; 0x200
   10094:	1a000008 	bne	100bc <irqHandler+0x40>
   10098:	e31400ff 	tst	r4, #255	; 0xff
   1009c:	08bd8010 	popeq	{r4, pc}
   100a0:	e59f305c 	ldr	r3, [pc, #92]	; 10104 <irqHandler+0x88>
   100a4:	e3a01040 	mov	r1, #64	; 0x40
   100a8:	e5933248 	ldr	r3, [r3, #584]	; 0x248
   100ac:	e0040003 	and	r0, r4, r3
   100b0:	e6ef0070 	uxtb	r0, r0
   100b4:	e8bd4010 	pop	{r4, lr}
   100b8:	eaffffda 	b	10028 <handleRange>
   100bc:	e59f303c 	ldr	r3, [pc, #60]	; 10100 <irqHandler+0x84>
   100c0:	e3a01020 	mov	r1, #32
   100c4:	e5930208 	ldr	r0, [r3, #520]	; 0x208
   100c8:	e59f3034 	ldr	r3, [pc, #52]	; 10104 <irqHandler+0x88>
   100cc:	e5933244 	ldr	r3, [r3, #580]	; 0x244
   100d0:	e0000003 	and	r0, r0, r3
   100d4:	ebffffd3 	bl	10028 <handleRange>
   100d8:	e31400ff 	tst	r4, #255	; 0xff
   100dc:	08bd8010 	popeq	{r4, pc}
   100e0:	eaffffee 	b	100a0 <irqHandler+0x24>
   100e4:	e5930204 	ldr	r0, [r3, #516]	; 0x204
   100e8:	e59f3014 	ldr	r3, [pc, #20]	; 10104 <irqHandler+0x88>
   100ec:	e3a01000 	mov	r1, #0
   100f0:	e5933240 	ldr	r3, [r3, #576]	; 0x240
   100f4:	e0000003 	and	r0, r0, r3
   100f8:	ebffffca 	bl	10028 <handleRange>
   100fc:	eaffffe3 	b	10090 <irqHandler+0x14>
   10100:	2000b000 	andcs	fp, r0, r0
   10104:	000125c8 	andeq	r2, r1, r8, asr #11

00010108 <irqUnblock>:
   10108:	f1080080 	cpsie	i
   1010c:	e12fff1e 	bx	lr

00010110 <irqBlock>:
   10110:	f10c0080 	cpsid	i
   10114:	e12fff1e 	bx	lr

00010118 <irqRegister>:
   10118:	e3500047 	cmp	r0, #71	; 0x47
   1011c:	812fff1e 	bxhi	lr
   10120:	f10c0080 	cpsid	i
   10124:	e59f3010 	ldr	r3, [pc, #16]	; 1013c <irqRegister+0x24>
   10128:	e083c180 	add	ip, r3, r0, lsl #3
   1012c:	e7831180 	str	r1, [r3, r0, lsl #3]
   10130:	e58c2004 	str	r2, [ip, #4]
   10134:	f1080080 	cpsie	i
   10138:	e12fff1e 	bx	lr
   1013c:	000125c8 	andeq	r2, r1, r8, asr #11

00010140 <irqEnable>:
   10140:	e200301f 	and	r3, r0, #31
   10144:	e3a02001 	mov	r2, #1
   10148:	e350001f 	cmp	r0, #31
   1014c:	e1a03312 	lsl	r3, r2, r3
   10150:	9a000011 	bls	1019c <irqEnable+0x5c>
   10154:	e350003f 	cmp	r0, #63	; 0x3f
   10158:	9a000008 	bls	10180 <irqEnable+0x40>
   1015c:	e3500047 	cmp	r0, #71	; 0x47
   10160:	812fff1e 	bxhi	lr
   10164:	e59f204c 	ldr	r2, [pc, #76]	; 101b8 <irqEnable+0x78>
   10168:	e59f004c 	ldr	r0, [pc, #76]	; 101bc <irqEnable+0x7c>
   1016c:	e5921248 	ldr	r1, [r2, #584]	; 0x248
   10170:	e5803218 	str	r3, [r0, #536]	; 0x218
   10174:	e1833001 	orr	r3, r3, r1
   10178:	e5823248 	str	r3, [r2, #584]	; 0x248
   1017c:	e12fff1e 	bx	lr
   10180:	e59f2030 	ldr	r2, [pc, #48]	; 101b8 <irqEnable+0x78>
   10184:	e59f0030 	ldr	r0, [pc, #48]	; 101bc <irqEnable+0x7c>
   10188:	e5921244 	ldr	r1, [r2, #580]	; 0x244
   1018c:	e5803214 	str	r3, [r0, #532]	; 0x214
   10190:	e1833001 	orr	r3, r3, r1
   10194:	e5823244 	str	r3, [r2, #580]	; 0x244
   10198:	e12fff1e 	bx	lr
   1019c:	e59f2014 	ldr	r2, [pc, #20]	; 101b8 <irqEnable+0x78>
   101a0:	e59f0014 	ldr	r0, [pc, #20]	; 101bc <irqEnable+0x7c>
   101a4:	e5921240 	ldr	r1, [r2, #576]	; 0x240
   101a8:	e5803210 	str	r3, [r0, #528]	; 0x210
   101ac:	e1833001 	orr	r3, r3, r1
   101b0:	e5823240 	str	r3, [r2, #576]	; 0x240
   101b4:	e12fff1e 	bx	lr
   101b8:	000125c8 	andeq	r2, r1, r8, asr #11
   101bc:	2000b000 	andcs	fp, r0, r0

000101c0 <irqDisable>:
   101c0:	e200301f 	and	r3, r0, #31
   101c4:	e3a02001 	mov	r2, #1
   101c8:	e350001f 	cmp	r0, #31
   101cc:	e1a03312 	lsl	r3, r2, r3
   101d0:	9a000011 	bls	1021c <irqDisable+0x5c>
   101d4:	e350003f 	cmp	r0, #63	; 0x3f
   101d8:	9a000008 	bls	10200 <irqDisable+0x40>
   101dc:	e3500047 	cmp	r0, #71	; 0x47
   101e0:	812fff1e 	bxhi	lr
   101e4:	e59f204c 	ldr	r2, [pc, #76]	; 10238 <irqDisable+0x78>
   101e8:	e59f004c 	ldr	r0, [pc, #76]	; 1023c <irqDisable+0x7c>
   101ec:	e5921248 	ldr	r1, [r2, #584]	; 0x248
   101f0:	e5803224 	str	r3, [r0, #548]	; 0x224
   101f4:	e1c13003 	bic	r3, r1, r3
   101f8:	e5823248 	str	r3, [r2, #584]	; 0x248
   101fc:	e12fff1e 	bx	lr
   10200:	e59f2030 	ldr	r2, [pc, #48]	; 10238 <irqDisable+0x78>
   10204:	e59f0030 	ldr	r0, [pc, #48]	; 1023c <irqDisable+0x7c>
   10208:	e5921244 	ldr	r1, [r2, #580]	; 0x244
   1020c:	e5803220 	str	r3, [r0, #544]	; 0x220
   10210:	e1c13003 	bic	r3, r1, r3
   10214:	e5823244 	str	r3, [r2, #580]	; 0x244
   10218:	e12fff1e 	bx	lr
   1021c:	e59f2014 	ldr	r2, [pc, #20]	; 10238 <irqDisable+0x78>
   10220:	e59f0014 	ldr	r0, [pc, #20]	; 1023c <irqDisable+0x7c>
   10224:	e5921240 	ldr	r1, [r2, #576]	; 0x240
   10228:	e580321c 	str	r3, [r0, #540]	; 0x21c
   1022c:	e1c13003 	bic	r3, r1, r3
   10230:	e5823240 	str	r3, [r2, #576]	; 0x240
   10234:	e12fff1e 	bx	lr
   10238:	000125c8 	andeq	r2, r1, r8, asr #11
   1023c:	2000b000 	andcs	fp, r0, r0

00010240 <init_uart>:
   10240:	e92d4038 	push	{r3, r4, r5, lr}
   10244:	e59f5088 	ldr	r5, [pc, #136]	; 102d4 <init_uart+0x94>
   10248:	e59f4088 	ldr	r4, [pc, #136]	; 102d8 <init_uart+0x98>
   1024c:	e1a00005 	mov	r0, r5
   10250:	e3a01000 	mov	r1, #0
   10254:	ebffff6f 	bl	10018 <PUT32>
   10258:	e59f007c 	ldr	r0, [pc, #124]	; 102dc <init_uart+0x9c>
   1025c:	e3a01000 	mov	r1, #0
   10260:	ebffff6c 	bl	10018 <PUT32>
   10264:	e1a00004 	mov	r0, r4
   10268:	e3a01903 	mov	r1, #49152	; 0xc000
   1026c:	ebffff69 	bl	10018 <PUT32>
   10270:	e1a00004 	mov	r0, r4
   10274:	e3a01000 	mov	r1, #0
   10278:	ebffff66 	bl	10018 <PUT32>
   1027c:	e59f005c 	ldr	r0, [pc, #92]	; 102e0 <init_uart+0xa0>
   10280:	e59f105c 	ldr	r1, [pc, #92]	; 102e4 <init_uart+0xa4>
   10284:	ebffff63 	bl	10018 <PUT32>
   10288:	e59f0058 	ldr	r0, [pc, #88]	; 102e8 <init_uart+0xa8>
   1028c:	e3a01001 	mov	r1, #1
   10290:	ebffff60 	bl	10018 <PUT32>
   10294:	e59f0050 	ldr	r0, [pc, #80]	; 102ec <init_uart+0xac>
   10298:	e3a01028 	mov	r1, #40	; 0x28
   1029c:	ebffff5d 	bl	10018 <PUT32>
   102a0:	e59f0048 	ldr	r0, [pc, #72]	; 102f0 <init_uart+0xb0>
   102a4:	e3a01070 	mov	r1, #112	; 0x70
   102a8:	ebffff5a 	bl	10018 <PUT32>
   102ac:	e59f1040 	ldr	r1, [pc, #64]	; 102f4 <init_uart+0xb4>
   102b0:	e59f0040 	ldr	r0, [pc, #64]	; 102f8 <init_uart+0xb8>
   102b4:	ebffff57 	bl	10018 <PUT32>
   102b8:	e1a00005 	mov	r0, r5
   102bc:	e59f1038 	ldr	r1, [pc, #56]	; 102fc <init_uart+0xbc>
   102c0:	ebffff54 	bl	10018 <PUT32>
   102c4:	e59f0034 	ldr	r0, [pc, #52]	; 10300 <init_uart+0xc0>
   102c8:	e3a01402 	mov	r1, #33554432	; 0x2000000
   102cc:	e8bd4038 	pop	{r3, r4, r5, lr}
   102d0:	eaffff50 	b	10018 <PUT32>
   102d4:	20201030 	eorcs	r1, r0, r0, lsr r0
   102d8:	20200098 	mlacs	r0, r8, r0, r0
   102dc:	20200094 	mlacs	r0, r4, r0, r0
   102e0:	20201044 	eorcs	r1, r0, r4, asr #32
   102e4:	000007ff 	strdeq	r0, [r0], -pc	; <UNPREDICTABLE>
   102e8:	20201024 	eorcs	r1, r0, r4, lsr #32
   102ec:	20201028 	eorcs	r1, r0, r8, lsr #32
   102f0:	2020102c 	eorcs	r1, r0, ip, lsr #32
   102f4:	000007d2 	ldrdeq	r0, [r0], -r2
   102f8:	20201038 	eorcs	r1, r0, r8, lsr r0
   102fc:	00000301 	andeq	r0, r0, r1, lsl #6
   10300:	2000b214 	andcs	fp, r0, r4, lsl r2

00010304 <uart_send>:
   10304:	e92d4010 	push	{r4, lr}
   10308:	e1a04000 	mov	r4, r0
   1030c:	e59f0018 	ldr	r0, [pc, #24]	; 1032c <uart_send+0x28>
   10310:	ebffff42 	bl	10020 <GET32>
   10314:	e3100020 	tst	r0, #32
   10318:	1afffffb 	bne	1030c <uart_send+0x8>
   1031c:	e59f000c 	ldr	r0, [pc, #12]	; 10330 <uart_send+0x2c>
   10320:	e1a01004 	mov	r1, r4
   10324:	e8bd4010 	pop	{r4, lr}
   10328:	eaffff3a 	b	10018 <PUT32>
   1032c:	20201018 	eorcs	r1, r0, r8, lsl r0
   10330:	20201000 	eorcs	r1, r0, r0

00010334 <uart_getchar>:
   10334:	e92d4008 	push	{r3, lr}
   10338:	e59f0014 	ldr	r0, [pc, #20]	; 10354 <uart_getchar+0x20>
   1033c:	ebffff37 	bl	10020 <GET32>
   10340:	e3100010 	tst	r0, #16
   10344:	1afffffb 	bne	10338 <uart_getchar+0x4>
   10348:	e59f0008 	ldr	r0, [pc, #8]	; 10358 <uart_getchar+0x24>
   1034c:	e8bd4008 	pop	{r3, lr}
   10350:	eaffff32 	b	10020 <GET32>
   10354:	20201018 	eorcs	r1, r0, r8, lsl r0
   10358:	20201000 	eorcs	r1, r0, r0

0001035c <hexstrings>:
   1035c:	e92d4038 	push	{r3, r4, r5, lr}
   10360:	e1a05000 	mov	r5, r0
   10364:	e3a04020 	mov	r4, #32
   10368:	e2444004 	sub	r4, r4, #4
   1036c:	e1a03435 	lsr	r3, r5, r4
   10370:	e203300f 	and	r3, r3, #15
   10374:	e3530009 	cmp	r3, #9
   10378:	82830037 	addhi	r0, r3, #55	; 0x37
   1037c:	92830030 	addls	r0, r3, #48	; 0x30
   10380:	ebffffdf 	bl	10304 <uart_send>
   10384:	e3540000 	cmp	r4, #0
   10388:	1afffff6 	bne	10368 <hexstrings+0xc>
   1038c:	e3a00020 	mov	r0, #32
   10390:	e8bd4038 	pop	{r3, r4, r5, lr}
   10394:	eaffffda 	b	10304 <uart_send>

00010398 <hexstring>:
   10398:	e92d4008 	push	{r3, lr}
   1039c:	ebffffee 	bl	1035c <hexstrings>
   103a0:	e3a0000d 	mov	r0, #13
   103a4:	ebffffd6 	bl	10304 <uart_send>
   103a8:	e3a0000a 	mov	r0, #10
   103ac:	e8bd4008 	pop	{r3, lr}
   103b0:	eaffffd3 	b	10304 <uart_send>

000103b4 <print>:
   103b4:	e92d4010 	push	{r4, lr}
   103b8:	e1a04000 	mov	r4, r0
   103bc:	e5d00000 	ldrb	r0, [r0]
   103c0:	e3500000 	cmp	r0, #0
   103c4:	0a000003 	beq	103d8 <print+0x24>
   103c8:	ebffffcd 	bl	10304 <uart_send>
   103cc:	e5f40001 	ldrb	r0, [r4, #1]!
   103d0:	e3500000 	cmp	r0, #0
   103d4:	1afffffb 	bne	103c8 <print+0x14>
   103d8:	e3a0000d 	mov	r0, #13
   103dc:	ebffffc8 	bl	10304 <uart_send>
   103e0:	e3a0000a 	mov	r0, #10
   103e4:	e8bd4010 	pop	{r4, lr}
   103e8:	eaffffc5 	b	10304 <uart_send>

000103ec <LED_Init>:
   103ec:	e92d4038 	push	{r3, r4, r5, lr}
   103f0:	e59f5034 	ldr	r5, [pc, #52]	; 1042c <LED_Init+0x40>
   103f4:	e59f4034 	ldr	r4, [pc, #52]	; 10430 <LED_Init+0x44>
   103f8:	e1a00005 	mov	r0, r5
   103fc:	ebffff07 	bl	10020 <GET32>
   10400:	e3c0160e 	bic	r1, r0, #14680064	; 0xe00000
   10404:	e3811602 	orr	r1, r1, #2097152	; 0x200000
   10408:	e1a00005 	mov	r0, r5
   1040c:	ebffff01 	bl	10018 <PUT32>
   10410:	e1a00004 	mov	r0, r4
   10414:	ebffff01 	bl	10020 <GET32>
   10418:	e3c0190e 	bic	r1, r0, #229376	; 0x38000
   1041c:	e3811902 	orr	r1, r1, #32768	; 0x8000
   10420:	e1a00004 	mov	r0, r4
   10424:	e8bd4038 	pop	{r3, r4, r5, lr}
   10428:	eafffefa 	b	10018 <PUT32>
   1042c:	20200010 	eorcs	r0, r0, r0, lsl r0
   10430:	2020000c 	eorcs	r0, r0, ip

00010434 <Green_Led_ON>:
   10434:	e59f0004 	ldr	r0, [pc, #4]	; 10440 <Green_Led_ON+0xc>
   10438:	e3a01902 	mov	r1, #32768	; 0x8000
   1043c:	eafffef5 	b	10018 <PUT32>
   10440:	20200020 	eorcs	r0, r0, r0, lsr #32

00010444 <Green_Led_OFF>:
   10444:	e59f0004 	ldr	r0, [pc, #4]	; 10450 <Green_Led_OFF+0xc>
   10448:	e3a01902 	mov	r1, #32768	; 0x8000
   1044c:	eafffef1 	b	10018 <PUT32>
   10450:	2020002c 	eorcs	r0, r0, ip, lsr #32

00010454 <task2>:
   10454:	e92d4008 	push	{r3, lr}
   10458:	e59f0024 	ldr	r0, [pc, #36]	; 10484 <task2+0x30>
   1045c:	ebffffd4 	bl	103b4 <print>
   10460:	e59f0020 	ldr	r0, [pc, #32]	; 10488 <task2+0x34>
   10464:	ebffffd2 	bl	103b4 <print>
   10468:	e59f001c 	ldr	r0, [pc, #28]	; 1048c <task2+0x38>
   1046c:	eb000711 	bl	120b8 <vTaskDelay>
   10470:	ebffffef 	bl	10434 <Green_Led_ON>
   10474:	e59f0010 	ldr	r0, [pc, #16]	; 1048c <task2+0x38>
   10478:	eb00070e 	bl	120b8 <vTaskDelay>
   1047c:	ebfffff0 	bl	10444 <Green_Led_OFF>
   10480:	eafffff6 	b	10460 <task2+0xc>
   10484:	00012560 	andeq	r2, r1, r0, ror #10
   10488:	00012568 	andeq	r2, r1, r8, ror #10
   1048c:	00000bb8 			; <UNDEFINED> instruction: 0x00000bb8

00010490 <Red_Led_ON>:
   10490:	e59f0004 	ldr	r0, [pc, #4]	; 1049c <Red_Led_ON+0xc>
   10494:	e3a01008 	mov	r1, #8
   10498:	eafffede 	b	10018 <PUT32>
   1049c:	20200020 	eorcs	r0, r0, r0, lsr #32

000104a0 <Red_Led_OFF>:
   104a0:	e59f0004 	ldr	r0, [pc, #4]	; 104ac <Red_Led_OFF+0xc>
   104a4:	e3a01008 	mov	r1, #8
   104a8:	eafffeda 	b	10018 <PUT32>
   104ac:	2020002c 	eorcs	r0, r0, ip, lsr #32

000104b0 <task1>:
   104b0:	e92d4008 	push	{r3, lr}
   104b4:	e59f0024 	ldr	r0, [pc, #36]	; 104e0 <task1+0x30>
   104b8:	ebffffbd 	bl	103b4 <print>
   104bc:	e59f0020 	ldr	r0, [pc, #32]	; 104e4 <task1+0x34>
   104c0:	ebffffbb 	bl	103b4 <print>
   104c4:	e3a00ffa 	mov	r0, #1000	; 0x3e8
   104c8:	eb0006fa 	bl	120b8 <vTaskDelay>
   104cc:	ebffffef 	bl	10490 <Red_Led_ON>
   104d0:	e3a00ffa 	mov	r0, #1000	; 0x3e8
   104d4:	eb0006f7 	bl	120b8 <vTaskDelay>
   104d8:	ebfffff0 	bl	104a0 <Red_Led_OFF>
   104dc:	eafffff6 	b	104bc <task1+0xc>
   104e0:	00012574 	andeq	r2, r1, r4, ror r5
   104e4:	0001257c 	andeq	r2, r1, ip, ror r5

000104e8 <vTickISR>:
   104e8:	e92d4008 	push	{r3, lr}
   104ec:	eb000631 	bl	11db8 <vTaskIncrementTick>
   104f0:	eb000748 	bl	12218 <vTaskSwitchContext>
   104f4:	e59f3008 	ldr	r3, [pc, #8]	; 10504 <vTickISR+0x1c>
   104f8:	e3a02000 	mov	r2, #0
   104fc:	e583240c 	str	r2, [r3, #1036]	; 0x40c
   10500:	e8bd8008 	pop	{r3, pc}
   10504:	2000b000 	andcs	fp, r0, r0

00010508 <pxPortInitialiseStack>:
   10508:	e1a03000 	mov	r3, r0
   1050c:	e3110001 	tst	r1, #1
   10510:	e2811004 	add	r1, r1, #4
   10514:	e5031004 	str	r1, [r3, #-4]
   10518:	e59f1080 	ldr	r1, [pc, #128]	; 105a0 <pxPortInitialiseStack+0x98>
   1051c:	03a0c01f 	moveq	ip, #31
   10520:	13a0c03f 	movne	ip, #63	; 0x3f
   10524:	e5031008 	str	r1, [r3, #-8]
   10528:	e59f1074 	ldr	r1, [pc, #116]	; 105a4 <pxPortInitialiseStack+0x9c>
   1052c:	e503300c 	str	r3, [r3, #-12]
   10530:	e5031010 	str	r1, [r3, #-16]
   10534:	e59f106c 	ldr	r1, [pc, #108]	; 105a8 <pxPortInitialiseStack+0xa0>
   10538:	e5032040 	str	r2, [r3, #-64]	; 0x40
   1053c:	e5031014 	str	r1, [r3, #-20]
   10540:	e59f1064 	ldr	r1, [pc, #100]	; 105ac <pxPortInitialiseStack+0xa4>
   10544:	e503c044 	str	ip, [r3, #-68]	; 0x44
   10548:	e5031018 	str	r1, [r3, #-24]
   1054c:	e59f105c 	ldr	r1, [pc, #92]	; 105b0 <pxPortInitialiseStack+0xa8>
   10550:	e503101c 	str	r1, [r3, #-28]
   10554:	e59f1058 	ldr	r1, [pc, #88]	; 105b4 <pxPortInitialiseStack+0xac>
   10558:	e5031020 	str	r1, [r3, #-32]
   1055c:	e59f1054 	ldr	r1, [pc, #84]	; 105b8 <pxPortInitialiseStack+0xb0>
   10560:	e5031024 	str	r1, [r3, #-36]	; 0x24
   10564:	e59f1050 	ldr	r1, [pc, #80]	; 105bc <pxPortInitialiseStack+0xb4>
   10568:	e5031028 	str	r1, [r3, #-40]	; 0x28
   1056c:	e59f104c 	ldr	r1, [pc, #76]	; 105c0 <pxPortInitialiseStack+0xb8>
   10570:	e503102c 	str	r1, [r3, #-44]	; 0x2c
   10574:	e59f1048 	ldr	r1, [pc, #72]	; 105c4 <pxPortInitialiseStack+0xbc>
   10578:	e5031030 	str	r1, [r3, #-48]	; 0x30
   1057c:	e59f1044 	ldr	r1, [pc, #68]	; 105c8 <pxPortInitialiseStack+0xc0>
   10580:	e5031034 	str	r1, [r3, #-52]	; 0x34
   10584:	e59f1040 	ldr	r1, [pc, #64]	; 105cc <pxPortInitialiseStack+0xc4>
   10588:	e5031038 	str	r1, [r3, #-56]	; 0x38
   1058c:	e59f103c 	ldr	r1, [pc, #60]	; 105d0 <pxPortInitialiseStack+0xc8>
   10590:	e503103c 	str	r1, [r3, #-60]	; 0x3c
   10594:	e3a03000 	mov	r3, #0
   10598:	e5203048 	str	r3, [r0, #-72]!	; 0x48
   1059c:	e12fff1e 	bx	lr
   105a0:	aaaaaaaa 	bge	feabb050 <_estack+0xf6aab050>
   105a4:	12121212 	andsne	r1, r2, #536870913	; 0x20000001
   105a8:	11111111 	tstne	r1, r1, lsl r1
   105ac:	10101010 	andsne	r1, r0, r0, lsl r0
   105b0:	09090909 	stmdbeq	r9, {r0, r3, r8, fp}
   105b4:	08080808 	stmdaeq	r8, {r3, fp}
   105b8:	07070707 	streq	r0, [r7, -r7, lsl #14]
   105bc:	06060606 	streq	r0, [r6], -r6, lsl #12
   105c0:	05050505 	streq	r0, [r5, #-1285]	; 0x505
   105c4:	04040404 	streq	r0, [r4], #-1028	; 0x404
   105c8:	03030303 	movweq	r0, #13059	; 0x3303
   105cc:	02020202 	andeq	r0, r2, #536870912	; 0x20000000
   105d0:	01010101 	tsteq	r1, r1, lsl #2

000105d4 <xPortStartScheduler>:
   105d4:	e92d4010 	push	{r4, lr}
   105d8:	ebfffecc 	bl	10110 <irqBlock>
   105dc:	e59f3050 	ldr	r3, [pc, #80]	; 10634 <xPortStartScheduler+0x60>
   105e0:	e59fc050 	ldr	ip, [pc, #80]	; 10638 <xPortStartScheduler+0x64>
   105e4:	e3a0e83e 	mov	lr, #4063232	; 0x3e0000
   105e8:	e583e408 	str	lr, [r3, #1032]	; 0x408
   105ec:	e583c400 	str	ip, [r3, #1024]	; 0x400
   105f0:	e583c418 	str	ip, [r3, #1048]	; 0x418
   105f4:	e3a0c0f9 	mov	ip, #249	; 0xf9
   105f8:	e583c41c 	str	ip, [r3, #1052]	; 0x41c
   105fc:	e59fc038 	ldr	ip, [pc, #56]	; 1063c <xPortStartScheduler+0x68>
   10600:	e3a04000 	mov	r4, #0
   10604:	e583440c 	str	r4, [r3, #1036]	; 0x40c
   10608:	e59f1030 	ldr	r1, [pc, #48]	; 10640 <xPortStartScheduler+0x6c>
   1060c:	e1a02004 	mov	r2, r4
   10610:	e583c408 	str	ip, [r3, #1032]	; 0x408
   10614:	e3a00040 	mov	r0, #64	; 0x40
   10618:	ebfffebe 	bl	10118 <irqRegister>
   1061c:	e3a00040 	mov	r0, #64	; 0x40
   10620:	ebfffec6 	bl	10140 <irqEnable>
   10624:	ebfffeb7 	bl	10108 <irqUnblock>
   10628:	eb000006 	bl	10648 <vPortISRStartFirstTask>
   1062c:	e1a00004 	mov	r0, r4
   10630:	e8bd8010 	pop	{r4, pc}
   10634:	2000b000 	andcs	fp, r0, r0
   10638:	000003e7 	andeq	r0, r0, r7, ror #7
   1063c:	003e00a2 	eorseq	r0, lr, r2, lsr #1
   10640:	000104e8 	andeq	r0, r1, r8, ror #9

00010644 <vPortEndScheduler>:
   10644:	e12fff1e 	bx	lr

00010648 <vPortISRStartFirstTask>:
   10648:	e59f306c 	ldr	r3, [pc, #108]	; 106bc <vPortISRStartFirstTask+0x74>
   1064c:	e5932000 	ldr	r2, [r3]
   10650:	e2822001 	add	r2, r2, #1
   10654:	e5832000 	str	r2, [r3]
   10658:	e10f0000 	mrs	r0, CPSR
   1065c:	e3c00080 	bic	r0, r0, #128	; 0x80
   10660:	e121f000 	msr	CPSR_c, r0
   10664:	e59f0218 	ldr	r0, [pc, #536]	; 10884 <vPortExitCritical+0x44>
   10668:	e5900000 	ldr	r0, [r0]
   1066c:	e590e000 	ldr	lr, [r0]
   10670:	e59f0210 	ldr	r0, [pc, #528]	; 10888 <vPortExitCritical+0x48>
   10674:	e8be0002 	ldm	lr!, {r1}
   10678:	e5801000 	str	r1, [r0]
   1067c:	e8be0001 	ldm	lr!, {r0}
   10680:	e16ff000 	msr	SPSR_fsxc, r0
   10684:	e8de7fff 	ldm	lr, {r0, r1, r2, r3, r4, r5, r6, r7, r8, r9, sl, fp, ip, sp, lr}^
   10688:	e320f000 	nop	{0}
   1068c:	e59ee03c 	ldr	lr, [lr, #60]	; 0x3c
   10690:	e25ef004 	subs	pc, lr, #4
   10694:	e320f000 	nop	{0}
   10698:	e320f000 	nop	{0}
   1069c:	e59f301c 	ldr	r3, [pc, #28]	; 106c0 <vPortISRStartFirstTask+0x78>
   106a0:	e5933000 	ldr	r3, [r3]
   106a4:	e59f3018 	ldr	r3, [pc, #24]	; 106c4 <vPortISRStartFirstTask+0x7c>
   106a8:	e5933000 	ldr	r3, [r3]
   106ac:	e8bd4000 	pop	{lr}
   106b0:	e24ee004 	sub	lr, lr, #4
   106b4:	e12fff1e 	bx	lr
   106b8:	e12fff1e 	bx	lr
   106bc:	00012814 	andeq	r2, r1, r4, lsl r8
   106c0:	000125b8 			; <UNDEFINED> instruction: 0x000125b8
   106c4:	000138b0 			; <UNDEFINED> instruction: 0x000138b0

000106c8 <vPortYieldProcessor>:
   106c8:	e28ee004 	add	lr, lr, #4
   106cc:	e92d0001 	push	{r0}
   106d0:	e94d2000 	stmdb	sp, {sp}^
   106d4:	e24dd004 	sub	sp, sp, #4
   106d8:	e8bd0001 	pop	{r0}
   106dc:	e9204000 	stmdb	r0!, {lr}
   106e0:	e1a0e000 	mov	lr, r0
   106e4:	e8bd0001 	pop	{r0}
   106e8:	e94e7fff 	stmdb	lr, {r0, r1, r2, r3, r4, r5, r6, r7, r8, r9, sl, fp, ip, sp, lr}^
   106ec:	e320f000 	nop	{0}
   106f0:	e24ee03c 	sub	lr, lr, #60	; 0x3c
   106f4:	e14f0000 	mrs	r0, SPSR
   106f8:	e92e0001 	stmdb	lr!, {r0}
   106fc:	e59f0184 	ldr	r0, [pc, #388]	; 10888 <vPortExitCritical+0x48>
   10700:	e5900000 	ldr	r0, [r0]
   10704:	e92e0001 	stmdb	lr!, {r0}
   10708:	e59f0174 	ldr	r0, [pc, #372]	; 10884 <vPortExitCritical+0x44>
   1070c:	e5900000 	ldr	r0, [r0]
   10710:	e580e000 	str	lr, [r0]
   10714:	e59f204c 	ldr	r2, [pc, #76]	; 10768 <vPortYieldProcessor+0xa0>
   10718:	e59f304c 	ldr	r3, [pc, #76]	; 1076c <vPortYieldProcessor+0xa4>
   1071c:	e5921000 	ldr	r1, [r2]
   10720:	e5931000 	ldr	r1, [r3]
   10724:	eb0006bb 	bl	12218 <vTaskSwitchContext>
   10728:	e59f0154 	ldr	r0, [pc, #340]	; 10884 <vPortExitCritical+0x44>
   1072c:	e5900000 	ldr	r0, [r0]
   10730:	e590e000 	ldr	lr, [r0]
   10734:	e59f014c 	ldr	r0, [pc, #332]	; 10888 <vPortExitCritical+0x48>
   10738:	e8be0002 	ldm	lr!, {r1}
   1073c:	e5801000 	str	r1, [r0]
   10740:	e8be0001 	ldm	lr!, {r0}
   10744:	e16ff000 	msr	SPSR_fsxc, r0
   10748:	e8de7fff 	ldm	lr, {r0, r1, r2, r3, r4, r5, r6, r7, r8, r9, sl, fp, ip, sp, lr}^
   1074c:	e320f000 	nop	{0}
   10750:	e59ee03c 	ldr	lr, [lr, #60]	; 0x3c
   10754:	e25ef004 	subs	pc, lr, #4
   10758:	e320f000 	nop	{0}
   1075c:	e320f000 	nop	{0}
   10760:	e5922000 	ldr	r2, [r2]
   10764:	e5933000 	ldr	r3, [r3]
   10768:	000125b8 			; <UNDEFINED> instruction: 0x000125b8
   1076c:	000138b0 			; <UNDEFINED> instruction: 0x000138b0

00010770 <vFreeRTOS_ISR>:
   10770:	e92d0001 	push	{r0}
   10774:	e94d2000 	stmdb	sp, {sp}^
   10778:	e24dd004 	sub	sp, sp, #4
   1077c:	e8bd0001 	pop	{r0}
   10780:	e9204000 	stmdb	r0!, {lr}
   10784:	e1a0e000 	mov	lr, r0
   10788:	e8bd0001 	pop	{r0}
   1078c:	e94e7fff 	stmdb	lr, {r0, r1, r2, r3, r4, r5, r6, r7, r8, r9, sl, fp, ip, sp, lr}^
   10790:	e320f000 	nop	{0}
   10794:	e24ee03c 	sub	lr, lr, #60	; 0x3c
   10798:	e14f0000 	mrs	r0, SPSR
   1079c:	e92e0001 	stmdb	lr!, {r0}
   107a0:	e59f00e0 	ldr	r0, [pc, #224]	; 10888 <vPortExitCritical+0x48>
   107a4:	e5900000 	ldr	r0, [r0]
   107a8:	e92e0001 	stmdb	lr!, {r0}
   107ac:	e59f00d0 	ldr	r0, [pc, #208]	; 10884 <vPortExitCritical+0x44>
   107b0:	e5900000 	ldr	r0, [r0]
   107b4:	e580e000 	str	lr, [r0]
   107b8:	e59f504c 	ldr	r5, [pc, #76]	; 1080c <vFreeRTOS_ISR+0x9c>
   107bc:	e59f404c 	ldr	r4, [pc, #76]	; 10810 <vFreeRTOS_ISR+0xa0>
   107c0:	e5953000 	ldr	r3, [r5]
   107c4:	e5943000 	ldr	r3, [r4]
   107c8:	ebfffe2b 	bl	1007c <irqHandler>
   107cc:	e59f00b0 	ldr	r0, [pc, #176]	; 10884 <vPortExitCritical+0x44>
   107d0:	e5900000 	ldr	r0, [r0]
   107d4:	e590e000 	ldr	lr, [r0]
   107d8:	e59f00a8 	ldr	r0, [pc, #168]	; 10888 <vPortExitCritical+0x48>
   107dc:	e8be0002 	ldm	lr!, {r1}
   107e0:	e5801000 	str	r1, [r0]
   107e4:	e8be0001 	ldm	lr!, {r0}
   107e8:	e16ff000 	msr	SPSR_fsxc, r0
   107ec:	e8de7fff 	ldm	lr, {r0, r1, r2, r3, r4, r5, r6, r7, r8, r9, sl, fp, ip, sp, lr}^
   107f0:	e320f000 	nop	{0}
   107f4:	e59ee03c 	ldr	lr, [lr, #60]	; 0x3c
   107f8:	e25ef004 	subs	pc, lr, #4
   107fc:	e320f000 	nop	{0}
   10800:	e320f000 	nop	{0}
   10804:	e5953000 	ldr	r3, [r5]
   10808:	e5943000 	ldr	r3, [r4]
   1080c:	000125b8 			; <UNDEFINED> instruction: 0x000125b8
   10810:	000138b0 			; <UNDEFINED> instruction: 0x000138b0

00010814 <vPortEnterCritical>:
   10814:	e92d0001 	push	{r0}
   10818:	e10f0000 	mrs	r0, CPSR
   1081c:	e38000c0 	orr	r0, r0, #192	; 0xc0
   10820:	e129f000 	msr	CPSR_fc, r0
   10824:	e8bd0001 	pop	{r0}
   10828:	e59f300c 	ldr	r3, [pc, #12]	; 1083c <vPortEnterCritical+0x28>
   1082c:	e5932000 	ldr	r2, [r3]
   10830:	e2822001 	add	r2, r2, #1
   10834:	e5832000 	str	r2, [r3]
   10838:	e12fff1e 	bx	lr
   1083c:	000125b8 			; <UNDEFINED> instruction: 0x000125b8

00010840 <vPortExitCritical>:
   10840:	e59f3038 	ldr	r3, [pc, #56]	; 10880 <vPortExitCritical+0x40>
   10844:	e5932000 	ldr	r2, [r3]
   10848:	e3520000 	cmp	r2, #0
   1084c:	012fff1e 	bxeq	lr
   10850:	e5932000 	ldr	r2, [r3]
   10854:	e2422001 	sub	r2, r2, #1
   10858:	e5832000 	str	r2, [r3]
   1085c:	e5933000 	ldr	r3, [r3]
   10860:	e3530000 	cmp	r3, #0
   10864:	112fff1e 	bxne	lr
   10868:	e92d0001 	push	{r0}
   1086c:	e10f0000 	mrs	r0, CPSR
   10870:	e3c000c0 	bic	r0, r0, #192	; 0xc0
   10874:	e129f000 	msr	CPSR_fc, r0
   10878:	e8bd0001 	pop	{r0}
   1087c:	e12fff1e 	bx	lr
   10880:	000125b8 			; <UNDEFINED> instruction: 0x000125b8
   10884:	000138b0 			; <UNDEFINED> instruction: 0x000138b0
   10888:	000125b8 			; <UNDEFINED> instruction: 0x000125b8

0001088c <prvInsertBlockIntoFreeList>:
   1088c:	e59fc078 	ldr	ip, [pc, #120]	; 1090c <prvInsertBlockIntoFreeList+0x80>
   10890:	e52d4004 	push	{r4}		; (str r4, [sp, #-4]!)
   10894:	e1a0200c 	mov	r2, ip
   10898:	ea000000 	b	108a0 <prvInsertBlockIntoFreeList+0x14>
   1089c:	e1a02003 	mov	r2, r3
   108a0:	e5923000 	ldr	r3, [r2]
   108a4:	e1530000 	cmp	r3, r0
   108a8:	3afffffb 	bcc	1089c <prvInsertBlockIntoFreeList+0x10>
   108ac:	e5921004 	ldr	r1, [r2, #4]
   108b0:	e0824001 	add	r4, r2, r1
   108b4:	e1540000 	cmp	r4, r0
   108b8:	05904004 	ldreq	r4, [r0, #4]
   108bc:	15901004 	ldrne	r1, [r0, #4]
   108c0:	00811004 	addeq	r1, r1, r4
   108c4:	01a00002 	moveq	r0, r2
   108c8:	e0804001 	add	r4, r0, r1
   108cc:	05821004 	streq	r1, [r2, #4]
   108d0:	e1530004 	cmp	r3, r4
   108d4:	0a000004 	beq	108ec <prvInsertBlockIntoFreeList+0x60>
   108d8:	e5803000 	str	r3, [r0]
   108dc:	e1500002 	cmp	r0, r2
   108e0:	15820000 	strne	r0, [r2]
   108e4:	e8bd0010 	pop	{r4}
   108e8:	e12fff1e 	bx	lr
   108ec:	e59cc008 	ldr	ip, [ip, #8]
   108f0:	e153000c 	cmp	r3, ip
   108f4:	0afffff7 	beq	108d8 <prvInsertBlockIntoFreeList+0x4c>
   108f8:	e8931008 	ldm	r3, {r3, ip}
   108fc:	e081100c 	add	r1, r1, ip
   10900:	e5801004 	str	r1, [r0, #4]
   10904:	e5803000 	str	r3, [r0]
   10908:	eafffff3 	b	108dc <prvInsertBlockIntoFreeList+0x50>
   1090c:	00012818 	andeq	r2, r1, r8, lsl r8

00010910 <pvPortMalloc>:
   10910:	e92d4070 	push	{r4, r5, r6, lr}
   10914:	e1a05000 	mov	r5, r0
   10918:	eb000510 	bl	11d60 <vTaskSuspendAll>
   1091c:	e59f111c 	ldr	r1, [pc, #284]	; 10a40 <pvPortMalloc+0x130>
   10920:	e5913008 	ldr	r3, [r1, #8]
   10924:	e3530000 	cmp	r3, #0
   10928:	0a000031 	beq	109f4 <pvPortMalloc+0xe4>
   1092c:	e3550000 	cmp	r5, #0
   10930:	01a06005 	moveq	r6, r5
   10934:	0a000021 	beq	109c0 <pvPortMalloc+0xb0>
   10938:	e2855010 	add	r5, r5, #16
   1093c:	e3150007 	tst	r5, #7
   10940:	13c55007 	bicne	r5, r5, #7
   10944:	12855008 	addne	r5, r5, #8
   10948:	e59f30f4 	ldr	r3, [pc, #244]	; 10a44 <pvPortMalloc+0x134>
   1094c:	e2452001 	sub	r2, r5, #1
   10950:	e1520003 	cmp	r2, r3
   10954:	8a000037 	bhi	10a38 <pvPortMalloc+0x128>
   10958:	e5914000 	ldr	r4, [r1]
   1095c:	e59f10dc 	ldr	r1, [pc, #220]	; 10a40 <pvPortMalloc+0x130>
   10960:	e1a0c001 	mov	ip, r1
   10964:	ea000001 	b	10970 <pvPortMalloc+0x60>
   10968:	e1a0c004 	mov	ip, r4
   1096c:	e1a04003 	mov	r4, r3
   10970:	e5942004 	ldr	r2, [r4, #4]
   10974:	e1550002 	cmp	r5, r2
   10978:	9a000002 	bls	10988 <pvPortMalloc+0x78>
   1097c:	e5943000 	ldr	r3, [r4]
   10980:	e3530000 	cmp	r3, #0
   10984:	1afffff7 	bne	10968 <pvPortMalloc+0x58>
   10988:	e5913008 	ldr	r3, [r1, #8]
   1098c:	e1540003 	cmp	r4, r3
   10990:	0a000028 	beq	10a38 <pvPortMalloc+0x128>
   10994:	e59c6000 	ldr	r6, [ip]
   10998:	e5941000 	ldr	r1, [r4]
   1099c:	e0653002 	rsb	r3, r5, r2
   109a0:	e3530020 	cmp	r3, #32
   109a4:	e2866010 	add	r6, r6, #16
   109a8:	e58c1000 	str	r1, [ip]
   109ac:	8a00000a 	bhi	109dc <pvPortMalloc+0xcc>
   109b0:	e59f3090 	ldr	r3, [pc, #144]	; 10a48 <pvPortMalloc+0x138>
   109b4:	e5931000 	ldr	r1, [r3]
   109b8:	e0622001 	rsb	r2, r2, r1
   109bc:	e5832000 	str	r2, [r3]
   109c0:	eb000553 	bl	11f14 <xTaskResumeAll>
   109c4:	e59f3080 	ldr	r3, [pc, #128]	; 10a4c <pvPortMalloc+0x13c>
   109c8:	e1a00006 	mov	r0, r6
   109cc:	e5132fe8 	ldr	r2, [r3, #-4072]	; 0xfe8
   109d0:	e0855002 	add	r5, r5, r2
   109d4:	e5035fe8 	str	r5, [r3, #-4072]	; 0xfe8
   109d8:	e8bd8070 	pop	{r4, r5, r6, pc}
   109dc:	e0840005 	add	r0, r4, r5
   109e0:	e5803004 	str	r3, [r0, #4]
   109e4:	e5845004 	str	r5, [r4, #4]
   109e8:	ebffffa7 	bl	1088c <prvInsertBlockIntoFreeList>
   109ec:	e5942004 	ldr	r2, [r4, #4]
   109f0:	eaffffee 	b	109b0 <pvPortMalloc+0xa0>
   109f4:	e59f204c 	ldr	r2, [pc, #76]	; 10a48 <pvPortMalloc+0x138>
   109f8:	e281e010 	add	lr, r1, #16
   109fc:	e581e000 	str	lr, [r1]
   10a00:	e59fe048 	ldr	lr, [pc, #72]	; 10a50 <pvPortMalloc+0x140>
   10a04:	e592c000 	ldr	ip, [r2]
   10a08:	e781300e 	str	r3, [r1, lr]
   10a0c:	e3a0ea01 	mov	lr, #4096	; 0x1000
   10a10:	e2810a01 	add	r0, r1, #4096	; 0x1000
   10a14:	e24cc010 	sub	ip, ip, #16
   10a18:	e5813004 	str	r3, [r1, #4]
   10a1c:	e781300e 	str	r3, [r1, lr]
   10a20:	e3a03eff 	mov	r3, #4080	; 0xff0
   10a24:	e5810008 	str	r0, [r1, #8]
   10a28:	e5813014 	str	r3, [r1, #20]
   10a2c:	e5810010 	str	r0, [r1, #16]
   10a30:	e582c000 	str	ip, [r2]
   10a34:	eaffffbc 	b	1092c <pvPortMalloc+0x1c>
   10a38:	e3a06000 	mov	r6, #0
   10a3c:	eaffffdf 	b	109c0 <pvPortMalloc+0xb0>
   10a40:	00012818 	andeq	r2, r1, r8, lsl r8
   10a44:	00000ffe 	strdeq	r0, [r0], -lr
   10a48:	000125bc 			; <UNDEFINED> instruction: 0x000125bc
   10a4c:	00014810 	andeq	r4, r1, r0, lsl r8
   10a50:	00001004 	andeq	r1, r0, r4

00010a54 <vPortFree>:
   10a54:	e92d4010 	push	{r4, lr}
   10a58:	e2504000 	subs	r4, r0, #0
   10a5c:	08bd8010 	popeq	{r4, pc}
   10a60:	eb0004be 	bl	11d60 <vTaskSuspendAll>
   10a64:	e59f301c 	ldr	r3, [pc, #28]	; 10a88 <vPortFree+0x34>
   10a68:	e514200c 	ldr	r2, [r4, #-12]
   10a6c:	e5931000 	ldr	r1, [r3]
   10a70:	e2440010 	sub	r0, r4, #16
   10a74:	e0812002 	add	r2, r1, r2
   10a78:	e5832000 	str	r2, [r3]
   10a7c:	ebffff82 	bl	1088c <prvInsertBlockIntoFreeList>
   10a80:	e8bd4010 	pop	{r4, lr}
   10a84:	ea000522 	b	11f14 <xTaskResumeAll>
   10a88:	000125bc 			; <UNDEFINED> instruction: 0x000125bc

00010a8c <xPortGetFreeHeapSize>:
   10a8c:	e59f3004 	ldr	r3, [pc, #4]	; 10a98 <xPortGetFreeHeapSize+0xc>
   10a90:	e5930000 	ldr	r0, [r3]
   10a94:	e12fff1e 	bx	lr
   10a98:	000125bc 			; <UNDEFINED> instruction: 0x000125bc

00010a9c <vPortInitialiseBlocks>:
   10a9c:	e12fff1e 	bx	lr

00010aa0 <memcpy>:
   10aa0:	e3520000 	cmp	r2, #0
   10aa4:	012fff1e 	bxeq	lr
   10aa8:	e2411001 	sub	r1, r1, #1
   10aac:	e080c002 	add	ip, r0, r2
   10ab0:	e1a03000 	mov	r3, r0
   10ab4:	e5f12001 	ldrb	r2, [r1, #1]!
   10ab8:	e4c32001 	strb	r2, [r3], #1
   10abc:	e153000c 	cmp	r3, ip
   10ac0:	1afffffb 	bne	10ab4 <memcpy+0x14>
   10ac4:	e12fff1e 	bx	lr

00010ac8 <memset>:
   10ac8:	e3520000 	cmp	r2, #0
   10acc:	012fff1e 	bxeq	lr
   10ad0:	e6ef1071 	uxtb	r1, r1
   10ad4:	e0802002 	add	r2, r0, r2
   10ad8:	e1a03000 	mov	r3, r0
   10adc:	e4c31001 	strb	r1, [r3], #1
   10ae0:	e1530002 	cmp	r3, r2
   10ae4:	1afffffc 	bne	10adc <memset+0x14>
   10ae8:	e12fff1e 	bx	lr

00010aec <strncpy>:
   10aec:	e92d0030 	push	{r4, r5}
   10af0:	e2411001 	sub	r1, r1, #1
   10af4:	e1a0c000 	mov	ip, r0
   10af8:	e0825000 	add	r5, r2, r0
   10afc:	e15c0005 	cmp	ip, r5
   10b00:	e1a0300c 	mov	r3, ip
   10b04:	e2422001 	sub	r2, r2, #1
   10b08:	0a00000a 	beq	10b38 <strncpy+0x4c>
   10b0c:	e5f14001 	ldrb	r4, [r1, #1]!
   10b10:	e4c34001 	strb	r4, [r3], #1
   10b14:	e3540000 	cmp	r4, #0
   10b18:	e1a0c003 	mov	ip, r3
   10b1c:	1afffff6 	bne	10afc <strncpy+0x10>
   10b20:	e3520000 	cmp	r2, #0
   10b24:	0a000003 	beq	10b38 <strncpy+0x4c>
   10b28:	e0832002 	add	r2, r3, r2
   10b2c:	e4c34001 	strb	r4, [r3], #1
   10b30:	e1530002 	cmp	r3, r2
   10b34:	1afffffc 	bne	10b2c <strncpy+0x40>
   10b38:	e8bd0030 	pop	{r4, r5}
   10b3c:	e12fff1e 	bx	lr

00010b40 <xCoRoutineCreate>:
   10b40:	e92d4ff8 	push	{r3, r4, r5, r6, r7, r8, r9, sl, fp, lr}
   10b44:	e1a0a000 	mov	sl, r0
   10b48:	e3a00038 	mov	r0, #56	; 0x38
   10b4c:	e1a07001 	mov	r7, r1
   10b50:	e1a09002 	mov	r9, r2
   10b54:	ebffff6d 	bl	10910 <pvPortMalloc>
   10b58:	e2504000 	subs	r4, r0, #0
   10b5c:	0a000030 	beq	10c24 <xCoRoutineCreate+0xe4>
   10b60:	e59f60c4 	ldr	r6, [pc, #196]	; 10c2c <xCoRoutineCreate+0xec>
   10b64:	e5963000 	ldr	r3, [r6]
   10b68:	e3530000 	cmp	r3, #0
   10b6c:	0a00001b 	beq	10be0 <xCoRoutineCreate+0xa0>
   10b70:	e2868004 	add	r8, r6, #4
   10b74:	e1a05004 	mov	r5, r4
   10b78:	e485a004 	str	sl, [r5], #4
   10b7c:	e3a03000 	mov	r3, #0
   10b80:	e3570001 	cmp	r7, #1
   10b84:	23a07001 	movcs	r7, #1
   10b88:	e1c433b4 	strh	r3, [r4, #52]	; 0x34
   10b8c:	e1a00005 	mov	r0, r5
   10b90:	e584702c 	str	r7, [r4, #44]	; 0x2c
   10b94:	e5849030 	str	r9, [r4, #48]	; 0x30
   10b98:	eb0000ea 	bl	10f48 <vListInitialiseItem>
   10b9c:	e2840018 	add	r0, r4, #24
   10ba0:	eb0000e8 	bl	10f48 <vListInitialiseItem>
   10ba4:	e594302c 	ldr	r3, [r4, #44]	; 0x2c
   10ba8:	e5962070 	ldr	r2, [r6, #112]	; 0x70
   10bac:	e0830103 	add	r0, r3, r3, lsl #2
   10bb0:	e1530002 	cmp	r3, r2
   10bb4:	859f2070 	ldrhi	r2, [pc, #112]	; 10c2c <xCoRoutineCreate+0xec>
   10bb8:	e2677005 	rsb	r7, r7, #5
   10bbc:	e0880100 	add	r0, r8, r0, lsl #2
   10bc0:	e5844010 	str	r4, [r4, #16]
   10bc4:	e5844024 	str	r4, [r4, #36]	; 0x24
   10bc8:	e5847018 	str	r7, [r4, #24]
   10bcc:	e1a01005 	mov	r1, r5
   10bd0:	85823070 	strhi	r3, [r2, #112]	; 0x70
   10bd4:	eb0000de 	bl	10f54 <vListInsertEnd>
   10bd8:	e3a00001 	mov	r0, #1
   10bdc:	e8bd8ff8 	pop	{r3, r4, r5, r6, r7, r8, r9, sl, fp, pc}
   10be0:	e1a08006 	mov	r8, r6
   10be4:	e4884004 	str	r4, [r8], #4
   10be8:	e1a00008 	mov	r0, r8
   10bec:	eb0000cc 	bl	10f24 <vListInitialise>
   10bf0:	e286b02c 	add	fp, r6, #44	; 0x2c
   10bf4:	e2860018 	add	r0, r6, #24
   10bf8:	eb0000c9 	bl	10f24 <vListInitialise>
   10bfc:	e2865040 	add	r5, r6, #64	; 0x40
   10c00:	e1a0000b 	mov	r0, fp
   10c04:	eb0000c6 	bl	10f24 <vListInitialise>
   10c08:	e1a00005 	mov	r0, r5
   10c0c:	eb0000c4 	bl	10f24 <vListInitialise>
   10c10:	e2860054 	add	r0, r6, #84	; 0x54
   10c14:	eb0000c2 	bl	10f24 <vListInitialise>
   10c18:	e586b068 	str	fp, [r6, #104]	; 0x68
   10c1c:	e586506c 	str	r5, [r6, #108]	; 0x6c
   10c20:	eaffffd3 	b	10b74 <xCoRoutineCreate+0x34>
   10c24:	e3e00000 	mvn	r0, #0
   10c28:	e8bd8ff8 	pop	{r3, r4, r5, r6, r7, r8, r9, sl, fp, pc}
   10c2c:	00013830 	andeq	r3, r1, r0, lsr r8

00010c30 <vCoRoutineAddToDelayedList>:
   10c30:	e92d4070 	push	{r4, r5, r6, lr}
   10c34:	e59f4050 	ldr	r4, [pc, #80]	; 10c8c <vCoRoutineAddToDelayedList+0x5c>
   10c38:	e1a06001 	mov	r6, r1
   10c3c:	e5943000 	ldr	r3, [r4]
   10c40:	e5945074 	ldr	r5, [r4, #116]	; 0x74
   10c44:	e0805005 	add	r5, r0, r5
   10c48:	e2830004 	add	r0, r3, #4
   10c4c:	eb0000e4 	bl	10fe4 <vListRemove>
   10c50:	e5942074 	ldr	r2, [r4, #116]	; 0x74
   10c54:	e5941000 	ldr	r1, [r4]
   10c58:	e1550002 	cmp	r5, r2
   10c5c:	e5815004 	str	r5, [r1, #4]
   10c60:	3594006c 	ldrcc	r0, [r4, #108]	; 0x6c
   10c64:	25940068 	ldrcs	r0, [r4, #104]	; 0x68
   10c68:	e2811004 	add	r1, r1, #4
   10c6c:	eb0000c4 	bl	10f84 <vListInsert>
   10c70:	e3560000 	cmp	r6, #0
   10c74:	08bd8070 	popeq	{r4, r5, r6, pc}
   10c78:	e5941000 	ldr	r1, [r4]
   10c7c:	e1a00006 	mov	r0, r6
   10c80:	e2811018 	add	r1, r1, #24
   10c84:	e8bd4070 	pop	{r4, r5, r6, lr}
   10c88:	ea0000bd 	b	10f84 <vListInsert>
   10c8c:	00013830 	andeq	r3, r1, r0, lsr r8

00010c90 <vCoRoutineSchedule>:
   10c90:	e92d41f0 	push	{r4, r5, r6, r7, r8, lr}
   10c94:	e59f6238 	ldr	r6, [pc, #568]	; 10ed4 <vCoRoutineSchedule+0x244>
   10c98:	e5963054 	ldr	r3, [r6, #84]	; 0x54
   10c9c:	e3530000 	cmp	r3, #0
   10ca0:	0a00001d 	beq	10d1c <vCoRoutineSchedule+0x8c>
   10ca4:	e2867004 	add	r7, r6, #4
   10ca8:	e1a08006 	mov	r8, r6
   10cac:	e92d0001 	push	{r0}
   10cb0:	e10f0000 	mrs	r0, CPSR
   10cb4:	e38000c0 	orr	r0, r0, #192	; 0xc0
   10cb8:	e129f000 	msr	CPSR_fc, r0
   10cbc:	e8bd0001 	pop	{r0}
   10cc0:	e5963060 	ldr	r3, [r6, #96]	; 0x60
   10cc4:	e593400c 	ldr	r4, [r3, #12]
   10cc8:	e2840018 	add	r0, r4, #24
   10ccc:	eb0000c4 	bl	10fe4 <vListRemove>
   10cd0:	e92d0001 	push	{r0}
   10cd4:	e10f0000 	mrs	r0, CPSR
   10cd8:	e3c000c0 	bic	r0, r0, #192	; 0xc0
   10cdc:	e129f000 	msr	CPSR_fc, r0
   10ce0:	e8bd0001 	pop	{r0}
   10ce4:	e2845004 	add	r5, r4, #4
   10ce8:	e1a00005 	mov	r0, r5
   10cec:	eb0000bc 	bl	10fe4 <vListRemove>
   10cf0:	e594302c 	ldr	r3, [r4, #44]	; 0x2c
   10cf4:	e5962070 	ldr	r2, [r6, #112]	; 0x70
   10cf8:	e0830103 	add	r0, r3, r3, lsl #2
   10cfc:	e1530002 	cmp	r3, r2
   10d00:	e1a01005 	mov	r1, r5
   10d04:	e0870100 	add	r0, r7, r0, lsl #2
   10d08:	85883070 	strhi	r3, [r8, #112]	; 0x70
   10d0c:	eb000090 	bl	10f54 <vListInsertEnd>
   10d10:	e5963054 	ldr	r3, [r6, #84]	; 0x54
   10d14:	e3530000 	cmp	r3, #0
   10d18:	1affffe3 	bne	10cac <vCoRoutineSchedule+0x1c>
   10d1c:	eb000415 	bl	11d78 <xTaskGetTickCount>
   10d20:	e5963078 	ldr	r3, [r6, #120]	; 0x78
   10d24:	e59f71a8 	ldr	r7, [pc, #424]	; 10ed4 <vCoRoutineSchedule+0x244>
   10d28:	e0630000 	rsb	r0, r3, r0
   10d2c:	e5963074 	ldr	r3, [r6, #116]	; 0x74
   10d30:	e586007c 	str	r0, [r6, #124]	; 0x7c
   10d34:	e2878004 	add	r8, r7, #4
   10d38:	e3500000 	cmp	r0, #0
   10d3c:	0a00003b 	beq	10e30 <vCoRoutineSchedule+0x1a0>
   10d40:	e2833001 	add	r3, r3, #1
   10d44:	e3530000 	cmp	r3, #0
   10d48:	05971068 	ldreq	r1, [r7, #104]	; 0x68
   10d4c:	0597206c 	ldreq	r2, [r7, #108]	; 0x6c
   10d50:	15972068 	ldrne	r2, [r7, #104]	; 0x68
   10d54:	0587106c 	streq	r1, [r7, #108]	; 0x6c
   10d58:	e5921000 	ldr	r1, [r2]
   10d5c:	e2400001 	sub	r0, r0, #1
   10d60:	05872068 	streq	r2, [r7, #104]	; 0x68
   10d64:	e3510000 	cmp	r1, #0
   10d68:	e5863074 	str	r3, [r6, #116]	; 0x74
   10d6c:	e586007c 	str	r0, [r6, #124]	; 0x7c
   10d70:	0afffff0 	beq	10d38 <vCoRoutineSchedule+0xa8>
   10d74:	e592200c 	ldr	r2, [r2, #12]
   10d78:	e592400c 	ldr	r4, [r2, #12]
   10d7c:	e5942004 	ldr	r2, [r4, #4]
   10d80:	e1530002 	cmp	r3, r2
   10d84:	2a000006 	bcs	10da4 <vCoRoutineSchedule+0x114>
   10d88:	eaffffea 	b	10d38 <vCoRoutineSchedule+0xa8>
   10d8c:	e593200c 	ldr	r2, [r3, #12]
   10d90:	e5973074 	ldr	r3, [r7, #116]	; 0x74
   10d94:	e592400c 	ldr	r4, [r2, #12]
   10d98:	e5942004 	ldr	r2, [r4, #4]
   10d9c:	e1520003 	cmp	r2, r3
   10da0:	8a00001f 	bhi	10e24 <vCoRoutineSchedule+0x194>
   10da4:	e92d0001 	push	{r0}
   10da8:	e10f0000 	mrs	r0, CPSR
   10dac:	e38000c0 	orr	r0, r0, #192	; 0xc0
   10db0:	e129f000 	msr	CPSR_fc, r0
   10db4:	e8bd0001 	pop	{r0}
   10db8:	e2845004 	add	r5, r4, #4
   10dbc:	e1a00005 	mov	r0, r5
   10dc0:	eb000087 	bl	10fe4 <vListRemove>
   10dc4:	e5943028 	ldr	r3, [r4, #40]	; 0x28
   10dc8:	e2840018 	add	r0, r4, #24
   10dcc:	e3530000 	cmp	r3, #0
   10dd0:	0a000000 	beq	10dd8 <vCoRoutineSchedule+0x148>
   10dd4:	eb000082 	bl	10fe4 <vListRemove>
   10dd8:	e92d0001 	push	{r0}
   10ddc:	e10f0000 	mrs	r0, CPSR
   10de0:	e3c000c0 	bic	r0, r0, #192	; 0xc0
   10de4:	e129f000 	msr	CPSR_fc, r0
   10de8:	e8bd0001 	pop	{r0}
   10dec:	e594302c 	ldr	r3, [r4, #44]	; 0x2c
   10df0:	e5962070 	ldr	r2, [r6, #112]	; 0x70
   10df4:	e0830103 	add	r0, r3, r3, lsl #2
   10df8:	e1530002 	cmp	r3, r2
   10dfc:	e1a01005 	mov	r1, r5
   10e00:	e0880100 	add	r0, r8, r0, lsl #2
   10e04:	85873070 	strhi	r3, [r7, #112]	; 0x70
   10e08:	eb000051 	bl	10f54 <vListInsertEnd>
   10e0c:	e5963068 	ldr	r3, [r6, #104]	; 0x68
   10e10:	e59f10bc 	ldr	r1, [pc, #188]	; 10ed4 <vCoRoutineSchedule+0x244>
   10e14:	e5932000 	ldr	r2, [r3]
   10e18:	e3520000 	cmp	r2, #0
   10e1c:	1affffda 	bne	10d8c <vCoRoutineSchedule+0xfc>
   10e20:	e5913074 	ldr	r3, [r1, #116]	; 0x74
   10e24:	e591007c 	ldr	r0, [r1, #124]	; 0x7c
   10e28:	e3500000 	cmp	r0, #0
   10e2c:	1affffc3 	bne	10d40 <vCoRoutineSchedule+0xb0>
   10e30:	e5962070 	ldr	r2, [r6, #112]	; 0x70
   10e34:	e5863078 	str	r3, [r6, #120]	; 0x78
   10e38:	e1a03102 	lsl	r3, r2, #2
   10e3c:	e0831002 	add	r1, r3, r2
   10e40:	e0861101 	add	r1, r6, r1, lsl #2
   10e44:	e5911004 	ldr	r1, [r1, #4]
   10e48:	e3510000 	cmp	r1, #0
   10e4c:	1a00000d 	bne	10e88 <vCoRoutineSchedule+0x1f8>
   10e50:	e3520000 	cmp	r2, #0
   10e54:	1a000002 	bne	10e64 <vCoRoutineSchedule+0x1d4>
   10e58:	e8bd81f0 	pop	{r4, r5, r6, r7, r8, pc}
   10e5c:	e3520000 	cmp	r2, #0
   10e60:	0a000019 	beq	10ecc <vCoRoutineSchedule+0x23c>
   10e64:	e2422001 	sub	r2, r2, #1
   10e68:	e1a03102 	lsl	r3, r2, #2
   10e6c:	e0831002 	add	r1, r3, r2
   10e70:	e0861101 	add	r1, r6, r1, lsl #2
   10e74:	e5911004 	ldr	r1, [r1, #4]
   10e78:	e59f0054 	ldr	r0, [pc, #84]	; 10ed4 <vCoRoutineSchedule+0x244>
   10e7c:	e3510000 	cmp	r1, #0
   10e80:	0afffff5 	beq	10e5c <vCoRoutineSchedule+0x1cc>
   10e84:	e5802070 	str	r2, [r0, #112]	; 0x70
   10e88:	e59f1048 	ldr	r1, [pc, #72]	; 10ed8 <vCoRoutineSchedule+0x248>
   10e8c:	e0832002 	add	r2, r3, r2
   10e90:	e0812102 	add	r2, r1, r2, lsl #2
   10e94:	e5923004 	ldr	r3, [r2, #4]
   10e98:	e2821008 	add	r1, r2, #8
   10e9c:	e5933004 	ldr	r3, [r3, #4]
   10ea0:	e1530001 	cmp	r3, r1
   10ea4:	e5823004 	str	r3, [r2, #4]
   10ea8:	05933004 	ldreq	r3, [r3, #4]
   10eac:	05823004 	streq	r3, [r2, #4]
   10eb0:	e593300c 	ldr	r3, [r3, #12]
   10eb4:	e1a00003 	mov	r0, r3
   10eb8:	e5863000 	str	r3, [r6]
   10ebc:	e5901030 	ldr	r1, [r0, #48]	; 0x30
   10ec0:	e5933000 	ldr	r3, [r3]
   10ec4:	e12fff33 	blx	r3
   10ec8:	e8bd81f0 	pop	{r4, r5, r6, r7, r8, pc}
   10ecc:	e5802070 	str	r2, [r0, #112]	; 0x70
   10ed0:	e8bd81f0 	pop	{r4, r5, r6, r7, r8, pc}
   10ed4:	00013830 	andeq	r3, r1, r0, lsr r8
   10ed8:	00013834 	andeq	r3, r1, r4, lsr r8

00010edc <xCoRoutineRemoveFromEventList>:
   10edc:	e590300c 	ldr	r3, [r0, #12]
   10ee0:	e92d4070 	push	{r4, r5, r6, lr}
   10ee4:	e593500c 	ldr	r5, [r3, #12]
   10ee8:	e59f4030 	ldr	r4, [pc, #48]	; 10f20 <xCoRoutineRemoveFromEventList+0x44>
   10eec:	e2856018 	add	r6, r5, #24
   10ef0:	e1a00006 	mov	r0, r6
   10ef4:	eb00003a 	bl	10fe4 <vListRemove>
   10ef8:	e2840054 	add	r0, r4, #84	; 0x54
   10efc:	e1a01006 	mov	r1, r6
   10f00:	eb000013 	bl	10f54 <vListInsertEnd>
   10f04:	e5943000 	ldr	r3, [r4]
   10f08:	e595002c 	ldr	r0, [r5, #44]	; 0x2c
   10f0c:	e593302c 	ldr	r3, [r3, #44]	; 0x2c
   10f10:	e1500003 	cmp	r0, r3
   10f14:	33a00000 	movcc	r0, #0
   10f18:	23a00001 	movcs	r0, #1
   10f1c:	e8bd8070 	pop	{r4, r5, r6, pc}
   10f20:	00013830 	andeq	r3, r1, r0, lsr r8

00010f24 <vListInitialise>:
   10f24:	e2803008 	add	r3, r0, #8
   10f28:	e3e02000 	mvn	r2, #0
   10f2c:	e5802008 	str	r2, [r0, #8]
   10f30:	e5803004 	str	r3, [r0, #4]
   10f34:	e580300c 	str	r3, [r0, #12]
   10f38:	e5803010 	str	r3, [r0, #16]
   10f3c:	e3a03000 	mov	r3, #0
   10f40:	e5803000 	str	r3, [r0]
   10f44:	e12fff1e 	bx	lr

00010f48 <vListInitialiseItem>:
   10f48:	e3a03000 	mov	r3, #0
   10f4c:	e5803010 	str	r3, [r0, #16]
   10f50:	e12fff1e 	bx	lr

00010f54 <vListInsertEnd>:
   10f54:	e5903004 	ldr	r3, [r0, #4]
   10f58:	e5932004 	ldr	r2, [r3, #4]
   10f5c:	e981000c 	stmib	r1, {r2, r3}
   10f60:	e5932004 	ldr	r2, [r3, #4]
   10f64:	e5821008 	str	r1, [r2, #8]
   10f68:	e5831004 	str	r1, [r3, #4]
   10f6c:	e5903000 	ldr	r3, [r0]
   10f70:	e5801004 	str	r1, [r0, #4]
   10f74:	e2833001 	add	r3, r3, #1
   10f78:	e5810010 	str	r0, [r1, #16]
   10f7c:	e5803000 	str	r3, [r0]
   10f80:	e12fff1e 	bx	lr

00010f84 <vListInsert>:
   10f84:	e591c000 	ldr	ip, [r1]
   10f88:	e37c0001 	cmn	ip, #1
   10f8c:	05903010 	ldreq	r3, [r0, #16]
   10f90:	0a000009 	beq	10fbc <vListInsert+0x38>
   10f94:	e590200c 	ldr	r2, [r0, #12]
   10f98:	e2803008 	add	r3, r0, #8
   10f9c:	e5922000 	ldr	r2, [r2]
   10fa0:	e15c0002 	cmp	ip, r2
   10fa4:	3a000004 	bcc	10fbc <vListInsert+0x38>
   10fa8:	e5933004 	ldr	r3, [r3, #4]
   10fac:	e5932004 	ldr	r2, [r3, #4]
   10fb0:	e5922000 	ldr	r2, [r2]
   10fb4:	e15c0002 	cmp	ip, r2
   10fb8:	2afffffa 	bcs	10fa8 <vListInsert+0x24>
   10fbc:	e5932004 	ldr	r2, [r3, #4]
   10fc0:	e5810010 	str	r0, [r1, #16]
   10fc4:	e5821008 	str	r1, [r2, #8]
   10fc8:	e5812004 	str	r2, [r1, #4]
   10fcc:	e5831004 	str	r1, [r3, #4]
   10fd0:	e5902000 	ldr	r2, [r0]
   10fd4:	e5813008 	str	r3, [r1, #8]
   10fd8:	e2823001 	add	r3, r2, #1
   10fdc:	e5803000 	str	r3, [r0]
   10fe0:	e12fff1e 	bx	lr

00010fe4 <vListRemove>:
   10fe4:	e5902004 	ldr	r2, [r0, #4]
   10fe8:	e5901008 	ldr	r1, [r0, #8]
   10fec:	e5903010 	ldr	r3, [r0, #16]
   10ff0:	e5821008 	str	r1, [r2, #8]
   10ff4:	e5901008 	ldr	r1, [r0, #8]
   10ff8:	e593c004 	ldr	ip, [r3, #4]
   10ffc:	e5812004 	str	r2, [r1, #4]
   11000:	e5932000 	ldr	r2, [r3]
   11004:	e15c0000 	cmp	ip, r0
   11008:	05831004 	streq	r1, [r3, #4]
   1100c:	e2422001 	sub	r2, r2, #1
   11010:	e3a01000 	mov	r1, #0
   11014:	e5801010 	str	r1, [r0, #16]
   11018:	e5832000 	str	r2, [r3]
   1101c:	e12fff1e 	bx	lr

00011020 <prvCopyDataFromQueue>:
   11020:	e590c000 	ldr	ip, [r0]
   11024:	e52d4004 	push	{r4}		; (str r4, [sp, #-4]!)
   11028:	e35c0000 	cmp	ip, #0
   1102c:	0a00000b 	beq	11060 <prvCopyDataFromQueue+0x40>
   11030:	e590300c 	ldr	r3, [r0, #12]
   11034:	e5902040 	ldr	r2, [r0, #64]	; 0x40
   11038:	e5904004 	ldr	r4, [r0, #4]
   1103c:	e0833002 	add	r3, r3, r2
   11040:	e1530004 	cmp	r3, r4
   11044:	e580300c 	str	r3, [r0, #12]
   11048:	21a0300c 	movcs	r3, ip
   1104c:	2580c00c 	strcs	ip, [r0, #12]
   11050:	e1a00001 	mov	r0, r1
   11054:	e1a01003 	mov	r1, r3
   11058:	e8bd0010 	pop	{r4}
   1105c:	eafffe8f 	b	10aa0 <memcpy>
   11060:	e8bd0010 	pop	{r4}
   11064:	e12fff1e 	bx	lr

00011068 <prvCopyDataToQueue>:
   11068:	e5903040 	ldr	r3, [r0, #64]	; 0x40
   1106c:	e92d4010 	push	{r4, lr}
   11070:	e3530000 	cmp	r3, #0
   11074:	e1a04000 	mov	r4, r0
   11078:	0a00000c 	beq	110b0 <prvCopyDataToQueue+0x48>
   1107c:	e3520000 	cmp	r2, #0
   11080:	1a00000e 	bne	110c0 <prvCopyDataToQueue+0x58>
   11084:	e1a02003 	mov	r2, r3
   11088:	e5900008 	ldr	r0, [r0, #8]
   1108c:	ebfffe83 	bl	10aa0 <memcpy>
   11090:	e5941008 	ldr	r1, [r4, #8]
   11094:	e5943040 	ldr	r3, [r4, #64]	; 0x40
   11098:	e5942004 	ldr	r2, [r4, #4]
   1109c:	e0813003 	add	r3, r1, r3
   110a0:	e1530002 	cmp	r3, r2
   110a4:	e5843008 	str	r3, [r4, #8]
   110a8:	25943000 	ldrcs	r3, [r4]
   110ac:	25843008 	strcs	r3, [r4, #8]
   110b0:	e5943038 	ldr	r3, [r4, #56]	; 0x38
   110b4:	e2833001 	add	r3, r3, #1
   110b8:	e5843038 	str	r3, [r4, #56]	; 0x38
   110bc:	e8bd8010 	pop	{r4, pc}
   110c0:	e1a02003 	mov	r2, r3
   110c4:	e590000c 	ldr	r0, [r0, #12]
   110c8:	ebfffe74 	bl	10aa0 <memcpy>
   110cc:	e5942040 	ldr	r2, [r4, #64]	; 0x40
   110d0:	e594300c 	ldr	r3, [r4, #12]
   110d4:	e2622000 	rsb	r2, r2, #0
   110d8:	e5941000 	ldr	r1, [r4]
   110dc:	e0833002 	add	r3, r3, r2
   110e0:	e1530001 	cmp	r3, r1
   110e4:	e584300c 	str	r3, [r4, #12]
   110e8:	35943004 	ldrcc	r3, [r4, #4]
   110ec:	30832002 	addcc	r2, r3, r2
   110f0:	3584200c 	strcc	r2, [r4, #12]
   110f4:	eaffffed 	b	110b0 <prvCopyDataToQueue+0x48>

000110f8 <prvUnlockQueue>:
   110f8:	e92d4038 	push	{r3, r4, r5, lr}
   110fc:	e1a04000 	mov	r4, r0
   11100:	ebfffdc3 	bl	10814 <vPortEnterCritical>
   11104:	e5943048 	ldr	r3, [r4, #72]	; 0x48
   11108:	e3530000 	cmp	r3, #0
   1110c:	da000013 	ble	11160 <prvUnlockQueue+0x68>
   11110:	e5943024 	ldr	r3, [r4, #36]	; 0x24
   11114:	e3530000 	cmp	r3, #0
   11118:	0a000010 	beq	11160 <prvUnlockQueue+0x68>
   1111c:	e2845024 	add	r5, r4, #36	; 0x24
   11120:	ea000008 	b	11148 <prvUnlockQueue+0x50>
   11124:	e5943048 	ldr	r3, [r4, #72]	; 0x48
   11128:	e2433001 	sub	r3, r3, #1
   1112c:	e5843048 	str	r3, [r4, #72]	; 0x48
   11130:	e5943048 	ldr	r3, [r4, #72]	; 0x48
   11134:	e3530000 	cmp	r3, #0
   11138:	da000008 	ble	11160 <prvUnlockQueue+0x68>
   1113c:	e5943024 	ldr	r3, [r4, #36]	; 0x24
   11140:	e3530000 	cmp	r3, #0
   11144:	0a000005 	beq	11160 <prvUnlockQueue+0x68>
   11148:	e1a00005 	mov	r0, r5
   1114c:	eb000491 	bl	12398 <xTaskRemoveFromEventList>
   11150:	e3500000 	cmp	r0, #0
   11154:	0afffff2 	beq	11124 <prvUnlockQueue+0x2c>
   11158:	eb0004db 	bl	124cc <vTaskMissedYield>
   1115c:	eafffff0 	b	11124 <prvUnlockQueue+0x2c>
   11160:	e3e03000 	mvn	r3, #0
   11164:	e5843048 	str	r3, [r4, #72]	; 0x48
   11168:	ebfffdb4 	bl	10840 <vPortExitCritical>
   1116c:	ebfffda8 	bl	10814 <vPortEnterCritical>
   11170:	e5943044 	ldr	r3, [r4, #68]	; 0x44
   11174:	e3530000 	cmp	r3, #0
   11178:	da000013 	ble	111cc <prvUnlockQueue+0xd4>
   1117c:	e5943010 	ldr	r3, [r4, #16]
   11180:	e3530000 	cmp	r3, #0
   11184:	0a000010 	beq	111cc <prvUnlockQueue+0xd4>
   11188:	e2845010 	add	r5, r4, #16
   1118c:	ea000008 	b	111b4 <prvUnlockQueue+0xbc>
   11190:	e5943044 	ldr	r3, [r4, #68]	; 0x44
   11194:	e2433001 	sub	r3, r3, #1
   11198:	e5843044 	str	r3, [r4, #68]	; 0x44
   1119c:	e5943044 	ldr	r3, [r4, #68]	; 0x44
   111a0:	e3530000 	cmp	r3, #0
   111a4:	da000008 	ble	111cc <prvUnlockQueue+0xd4>
   111a8:	e5943010 	ldr	r3, [r4, #16]
   111ac:	e3530000 	cmp	r3, #0
   111b0:	0a000005 	beq	111cc <prvUnlockQueue+0xd4>
   111b4:	e1a00005 	mov	r0, r5
   111b8:	eb000476 	bl	12398 <xTaskRemoveFromEventList>
   111bc:	e3500000 	cmp	r0, #0
   111c0:	0afffff2 	beq	11190 <prvUnlockQueue+0x98>
   111c4:	eb0004c0 	bl	124cc <vTaskMissedYield>
   111c8:	eafffff0 	b	11190 <prvUnlockQueue+0x98>
   111cc:	e3e03000 	mvn	r3, #0
   111d0:	e5843044 	str	r3, [r4, #68]	; 0x44
   111d4:	e8bd4038 	pop	{r3, r4, r5, lr}
   111d8:	eafffd98 	b	10840 <vPortExitCritical>

000111dc <xQueueGenericReset>:
   111dc:	e92d4038 	push	{r3, r4, r5, lr}
   111e0:	e1a04000 	mov	r4, r0
   111e4:	e1a05001 	mov	r5, r1
   111e8:	ebfffd89 	bl	10814 <vPortEnterCritical>
   111ec:	e594003c 	ldr	r0, [r4, #60]	; 0x3c
   111f0:	e5943000 	ldr	r3, [r4]
   111f4:	e5942040 	ldr	r2, [r4, #64]	; 0x40
   111f8:	e2401001 	sub	r1, r0, #1
   111fc:	e0213192 	mla	r1, r2, r1, r3
   11200:	e0203290 	mla	r0, r0, r2, r3
   11204:	e3a0c000 	mov	ip, #0
   11208:	e3e02000 	mvn	r2, #0
   1120c:	e3550000 	cmp	r5, #0
   11210:	e584c038 	str	ip, [r4, #56]	; 0x38
   11214:	e5840004 	str	r0, [r4, #4]
   11218:	e5842044 	str	r2, [r4, #68]	; 0x44
   1121c:	e5843008 	str	r3, [r4, #8]
   11220:	e584100c 	str	r1, [r4, #12]
   11224:	e5842048 	str	r2, [r4, #72]	; 0x48
   11228:	1a00000b 	bne	1125c <xQueueGenericReset+0x80>
   1122c:	e5943010 	ldr	r3, [r4, #16]
   11230:	e153000c 	cmp	r3, ip
   11234:	1a000002 	bne	11244 <xQueueGenericReset+0x68>
   11238:	ebfffd80 	bl	10840 <vPortExitCritical>
   1123c:	e3a00001 	mov	r0, #1
   11240:	e8bd8038 	pop	{r3, r4, r5, pc}
   11244:	e2840010 	add	r0, r4, #16
   11248:	eb000452 	bl	12398 <xTaskRemoveFromEventList>
   1124c:	e3500001 	cmp	r0, #1
   11250:	1afffff8 	bne	11238 <xQueueGenericReset+0x5c>
   11254:	ef000000 	svc	0x00000000
   11258:	eafffff6 	b	11238 <xQueueGenericReset+0x5c>
   1125c:	e2840010 	add	r0, r4, #16
   11260:	ebffff2f 	bl	10f24 <vListInitialise>
   11264:	e2840024 	add	r0, r4, #36	; 0x24
   11268:	ebffff2d 	bl	10f24 <vListInitialise>
   1126c:	eafffff1 	b	11238 <xQueueGenericReset+0x5c>

00011270 <xQueueGenericCreate>:
   11270:	e92d40f8 	push	{r3, r4, r5, r6, r7, lr}
   11274:	e2506000 	subs	r6, r0, #0
   11278:	e1a05001 	mov	r5, r1
   1127c:	0a000011 	beq	112c8 <xQueueGenericCreate+0x58>
   11280:	e3a0004c 	mov	r0, #76	; 0x4c
   11284:	ebfffda1 	bl	10910 <pvPortMalloc>
   11288:	e2504000 	subs	r4, r0, #0
   1128c:	0a00000d 	beq	112c8 <xQueueGenericCreate+0x58>
   11290:	e0000596 	mul	r0, r6, r5
   11294:	e2800001 	add	r0, r0, #1
   11298:	ebfffd9c 	bl	10910 <pvPortMalloc>
   1129c:	e3500000 	cmp	r0, #0
   112a0:	e1a07000 	mov	r7, r0
   112a4:	e5840000 	str	r0, [r4]
   112a8:	0a000008 	beq	112d0 <xQueueGenericCreate+0x60>
   112ac:	e584603c 	str	r6, [r4, #60]	; 0x3c
   112b0:	e5845040 	str	r5, [r4, #64]	; 0x40
   112b4:	e1a00004 	mov	r0, r4
   112b8:	e3a01001 	mov	r1, #1
   112bc:	ebffffc6 	bl	111dc <xQueueGenericReset>
   112c0:	e1a00004 	mov	r0, r4
   112c4:	e8bd80f8 	pop	{r3, r4, r5, r6, r7, pc}
   112c8:	e3a00000 	mov	r0, #0
   112cc:	e8bd80f8 	pop	{r3, r4, r5, r6, r7, pc}
   112d0:	e1a00004 	mov	r0, r4
   112d4:	ebfffdde 	bl	10a54 <vPortFree>
   112d8:	e1a00007 	mov	r0, r7
   112dc:	e8bd80f8 	pop	{r3, r4, r5, r6, r7, pc}

000112e0 <xQueueGenericSend>:
   112e0:	e92d47f0 	push	{r4, r5, r6, r7, r8, r9, sl, lr}
   112e4:	e3a05000 	mov	r5, #0
   112e8:	e24dd010 	sub	sp, sp, #16
   112ec:	e1a04000 	mov	r4, r0
   112f0:	e1a0a001 	mov	sl, r1
   112f4:	e58d2004 	str	r2, [sp, #4]
   112f8:	e1a08003 	mov	r8, r3
   112fc:	e1a06005 	mov	r6, r5
   11300:	e2807010 	add	r7, r0, #16
   11304:	ea000009 	b	11330 <xQueueGenericSend+0x50>
   11308:	e59d1004 	ldr	r1, [sp, #4]
   1130c:	e1a00007 	mov	r0, r7
   11310:	eb00040b 	bl	12344 <vTaskPlaceOnEventList>
   11314:	e1a00004 	mov	r0, r4
   11318:	ebffff76 	bl	110f8 <prvUnlockQueue>
   1131c:	eb0002fc 	bl	11f14 <xTaskResumeAll>
   11320:	e3500000 	cmp	r0, #0
   11324:	1a000000 	bne	1132c <xQueueGenericSend+0x4c>
   11328:	ef000000 	svc	0x00000000
   1132c:	e3a05001 	mov	r5, #1
   11330:	ebfffd37 	bl	10814 <vPortEnterCritical>
   11334:	e594e038 	ldr	lr, [r4, #56]	; 0x38
   11338:	e594c03c 	ldr	ip, [r4, #60]	; 0x3c
   1133c:	e15e000c 	cmp	lr, ip
   11340:	3a000020 	bcc	113c8 <xQueueGenericSend+0xe8>
   11344:	e59d9004 	ldr	r9, [sp, #4]
   11348:	e3590000 	cmp	r9, #0
   1134c:	0a000028 	beq	113f4 <xQueueGenericSend+0x114>
   11350:	e3550000 	cmp	r5, #0
   11354:	0a000018 	beq	113bc <xQueueGenericSend+0xdc>
   11358:	ebfffd38 	bl	10840 <vPortExitCritical>
   1135c:	eb00027f 	bl	11d60 <vTaskSuspendAll>
   11360:	ebfffd2b 	bl	10814 <vPortEnterCritical>
   11364:	e5943044 	ldr	r3, [r4, #68]	; 0x44
   11368:	e3730001 	cmn	r3, #1
   1136c:	05846044 	streq	r6, [r4, #68]	; 0x44
   11370:	e5943048 	ldr	r3, [r4, #72]	; 0x48
   11374:	e3730001 	cmn	r3, #1
   11378:	05846048 	streq	r6, [r4, #72]	; 0x48
   1137c:	ebfffd2f 	bl	10840 <vPortExitCritical>
   11380:	e28d0008 	add	r0, sp, #8
   11384:	e28d1004 	add	r1, sp, #4
   11388:	eb00042b 	bl	1243c <xTaskCheckForTimeOut>
   1138c:	e3500000 	cmp	r0, #0
   11390:	1a00001a 	bne	11400 <xQueueGenericSend+0x120>
   11394:	ebfffd1e 	bl	10814 <vPortEnterCritical>
   11398:	e5949038 	ldr	r9, [r4, #56]	; 0x38
   1139c:	e594503c 	ldr	r5, [r4, #60]	; 0x3c
   113a0:	ebfffd26 	bl	10840 <vPortExitCritical>
   113a4:	e1590005 	cmp	r9, r5
   113a8:	0affffd6 	beq	11308 <xQueueGenericSend+0x28>
   113ac:	e1a00004 	mov	r0, r4
   113b0:	ebffff50 	bl	110f8 <prvUnlockQueue>
   113b4:	eb0002d6 	bl	11f14 <xTaskResumeAll>
   113b8:	eaffffdb 	b	1132c <xQueueGenericSend+0x4c>
   113bc:	e28d0008 	add	r0, sp, #8
   113c0:	eb000417 	bl	12424 <vTaskSetTimeOutState>
   113c4:	eaffffe3 	b	11358 <xQueueGenericSend+0x78>
   113c8:	e1a00004 	mov	r0, r4
   113cc:	e1a0100a 	mov	r1, sl
   113d0:	e1a02008 	mov	r2, r8
   113d4:	ebffff23 	bl	11068 <prvCopyDataToQueue>
   113d8:	e5943024 	ldr	r3, [r4, #36]	; 0x24
   113dc:	e3530000 	cmp	r3, #0
   113e0:	1a00000b 	bne	11414 <xQueueGenericSend+0x134>
   113e4:	ebfffd15 	bl	10840 <vPortExitCritical>
   113e8:	e3a00001 	mov	r0, #1
   113ec:	e28dd010 	add	sp, sp, #16
   113f0:	e8bd87f0 	pop	{r4, r5, r6, r7, r8, r9, sl, pc}
   113f4:	ebfffd11 	bl	10840 <vPortExitCritical>
   113f8:	e1a00009 	mov	r0, r9
   113fc:	eafffffa 	b	113ec <xQueueGenericSend+0x10c>
   11400:	e1a00004 	mov	r0, r4
   11404:	ebffff3b 	bl	110f8 <prvUnlockQueue>
   11408:	eb0002c1 	bl	11f14 <xTaskResumeAll>
   1140c:	e3a00000 	mov	r0, #0
   11410:	eafffff5 	b	113ec <xQueueGenericSend+0x10c>
   11414:	e2840024 	add	r0, r4, #36	; 0x24
   11418:	eb0003de 	bl	12398 <xTaskRemoveFromEventList>
   1141c:	e3500001 	cmp	r0, #1
   11420:	1affffef 	bne	113e4 <xQueueGenericSend+0x104>
   11424:	ef000000 	svc	0x00000000
   11428:	eaffffed 	b	113e4 <xQueueGenericSend+0x104>

0001142c <xQueueGenericSendFromISR>:
   1142c:	e92d4070 	push	{r4, r5, r6, lr}
   11430:	e590c03c 	ldr	ip, [r0, #60]	; 0x3c
   11434:	e5905038 	ldr	r5, [r0, #56]	; 0x38
   11438:	e1a04000 	mov	r4, r0
   1143c:	e155000c 	cmp	r5, ip
   11440:	e1a06002 	mov	r6, r2
   11444:	3a000001 	bcc	11450 <xQueueGenericSendFromISR+0x24>
   11448:	e3a00000 	mov	r0, #0
   1144c:	e8bd8070 	pop	{r4, r5, r6, pc}
   11450:	e1a02003 	mov	r2, r3
   11454:	ebffff03 	bl	11068 <prvCopyDataToQueue>
   11458:	e5943048 	ldr	r3, [r4, #72]	; 0x48
   1145c:	e3730001 	cmn	r3, #1
   11460:	0a000004 	beq	11478 <xQueueGenericSendFromISR+0x4c>
   11464:	e5943048 	ldr	r3, [r4, #72]	; 0x48
   11468:	e3a00001 	mov	r0, #1
   1146c:	e0833000 	add	r3, r3, r0
   11470:	e5843048 	str	r3, [r4, #72]	; 0x48
   11474:	e8bd8070 	pop	{r4, r5, r6, pc}
   11478:	e5943024 	ldr	r3, [r4, #36]	; 0x24
   1147c:	e3530000 	cmp	r3, #0
   11480:	1a000001 	bne	1148c <xQueueGenericSendFromISR+0x60>
   11484:	e3a00001 	mov	r0, #1
   11488:	e8bd8070 	pop	{r4, r5, r6, pc}
   1148c:	e2840024 	add	r0, r4, #36	; 0x24
   11490:	eb0003c0 	bl	12398 <xTaskRemoveFromEventList>
   11494:	e3500000 	cmp	r0, #0
   11498:	0afffff9 	beq	11484 <xQueueGenericSendFromISR+0x58>
   1149c:	e3560000 	cmp	r6, #0
   114a0:	0afffff7 	beq	11484 <xQueueGenericSendFromISR+0x58>
   114a4:	e3a00001 	mov	r0, #1
   114a8:	e5860000 	str	r0, [r6]
   114ac:	e8bd8070 	pop	{r4, r5, r6, pc}

000114b0 <xQueueGenericReceive>:
   114b0:	e92d47f0 	push	{r4, r5, r6, r7, r8, r9, sl, lr}
   114b4:	e3a05000 	mov	r5, #0
   114b8:	e24dd010 	sub	sp, sp, #16
   114bc:	e1a04000 	mov	r4, r0
   114c0:	e1a09001 	mov	r9, r1
   114c4:	e58d2004 	str	r2, [sp, #4]
   114c8:	e1a0a003 	mov	sl, r3
   114cc:	e1a07005 	mov	r7, r5
   114d0:	e2808024 	add	r8, r0, #36	; 0x24
   114d4:	ea000009 	b	11500 <xQueueGenericReceive+0x50>
   114d8:	e59d1004 	ldr	r1, [sp, #4]
   114dc:	e1a00008 	mov	r0, r8
   114e0:	eb000397 	bl	12344 <vTaskPlaceOnEventList>
   114e4:	e1a00004 	mov	r0, r4
   114e8:	ebffff02 	bl	110f8 <prvUnlockQueue>
   114ec:	eb000288 	bl	11f14 <xTaskResumeAll>
   114f0:	e3500000 	cmp	r0, #0
   114f4:	1a000000 	bne	114fc <xQueueGenericReceive+0x4c>
   114f8:	ef000000 	svc	0x00000000
   114fc:	e3a05001 	mov	r5, #1
   11500:	ebfffcc3 	bl	10814 <vPortEnterCritical>
   11504:	e5942038 	ldr	r2, [r4, #56]	; 0x38
   11508:	e3520000 	cmp	r2, #0
   1150c:	1a00001f 	bne	11590 <xQueueGenericReceive+0xe0>
   11510:	e59d6004 	ldr	r6, [sp, #4]
   11514:	e3560000 	cmp	r6, #0
   11518:	0a00002e 	beq	115d8 <xQueueGenericReceive+0x128>
   1151c:	e3550000 	cmp	r5, #0
   11520:	0a000017 	beq	11584 <xQueueGenericReceive+0xd4>
   11524:	ebfffcc5 	bl	10840 <vPortExitCritical>
   11528:	eb00020c 	bl	11d60 <vTaskSuspendAll>
   1152c:	ebfffcb8 	bl	10814 <vPortEnterCritical>
   11530:	e5943044 	ldr	r3, [r4, #68]	; 0x44
   11534:	e3730001 	cmn	r3, #1
   11538:	05847044 	streq	r7, [r4, #68]	; 0x44
   1153c:	e5943048 	ldr	r3, [r4, #72]	; 0x48
   11540:	e3730001 	cmn	r3, #1
   11544:	05847048 	streq	r7, [r4, #72]	; 0x48
   11548:	ebfffcbc 	bl	10840 <vPortExitCritical>
   1154c:	e28d0008 	add	r0, sp, #8
   11550:	e28d1004 	add	r1, sp, #4
   11554:	eb0003b8 	bl	1243c <xTaskCheckForTimeOut>
   11558:	e3500000 	cmp	r0, #0
   1155c:	1a000021 	bne	115e8 <xQueueGenericReceive+0x138>
   11560:	ebfffcab 	bl	10814 <vPortEnterCritical>
   11564:	e5945038 	ldr	r5, [r4, #56]	; 0x38
   11568:	ebfffcb4 	bl	10840 <vPortExitCritical>
   1156c:	e3550000 	cmp	r5, #0
   11570:	0affffd8 	beq	114d8 <xQueueGenericReceive+0x28>
   11574:	e1a00004 	mov	r0, r4
   11578:	ebfffede 	bl	110f8 <prvUnlockQueue>
   1157c:	eb000264 	bl	11f14 <xTaskResumeAll>
   11580:	eaffffdd 	b	114fc <xQueueGenericReceive+0x4c>
   11584:	e28d0008 	add	r0, sp, #8
   11588:	eb0003a5 	bl	12424 <vTaskSetTimeOutState>
   1158c:	eaffffe4 	b	11524 <xQueueGenericReceive+0x74>
   11590:	e1a00004 	mov	r0, r4
   11594:	e1a01009 	mov	r1, r9
   11598:	e594500c 	ldr	r5, [r4, #12]
   1159c:	ebfffe9f 	bl	11020 <prvCopyDataFromQueue>
   115a0:	e35a0000 	cmp	sl, #0
   115a4:	1a000014 	bne	115fc <xQueueGenericReceive+0x14c>
   115a8:	e5943038 	ldr	r3, [r4, #56]	; 0x38
   115ac:	e2433001 	sub	r3, r3, #1
   115b0:	e5843038 	str	r3, [r4, #56]	; 0x38
   115b4:	e5943010 	ldr	r3, [r4, #16]
   115b8:	e3530000 	cmp	r3, #0
   115bc:	0a000012 	beq	1160c <xQueueGenericReceive+0x15c>
   115c0:	e2840010 	add	r0, r4, #16
   115c4:	eb000373 	bl	12398 <xTaskRemoveFromEventList>
   115c8:	e3500001 	cmp	r0, #1
   115cc:	1a00000e 	bne	1160c <xQueueGenericReceive+0x15c>
   115d0:	ef000000 	svc	0x00000000
   115d4:	ea00000c 	b	1160c <xQueueGenericReceive+0x15c>
   115d8:	ebfffc98 	bl	10840 <vPortExitCritical>
   115dc:	e1a00006 	mov	r0, r6
   115e0:	e28dd010 	add	sp, sp, #16
   115e4:	e8bd87f0 	pop	{r4, r5, r6, r7, r8, r9, sl, pc}
   115e8:	e1a00004 	mov	r0, r4
   115ec:	ebfffec1 	bl	110f8 <prvUnlockQueue>
   115f0:	eb000247 	bl	11f14 <xTaskResumeAll>
   115f4:	e3a00000 	mov	r0, #0
   115f8:	eafffff8 	b	115e0 <xQueueGenericReceive+0x130>
   115fc:	e5943024 	ldr	r3, [r4, #36]	; 0x24
   11600:	e584500c 	str	r5, [r4, #12]
   11604:	e3530000 	cmp	r3, #0
   11608:	1a000002 	bne	11618 <xQueueGenericReceive+0x168>
   1160c:	ebfffc8b 	bl	10840 <vPortExitCritical>
   11610:	e3a00001 	mov	r0, #1
   11614:	eafffff1 	b	115e0 <xQueueGenericReceive+0x130>
   11618:	e2840024 	add	r0, r4, #36	; 0x24
   1161c:	eb00035d 	bl	12398 <xTaskRemoveFromEventList>
   11620:	e3500000 	cmp	r0, #0
   11624:	1affffe9 	bne	115d0 <xQueueGenericReceive+0x120>
   11628:	eafffff7 	b	1160c <xQueueGenericReceive+0x15c>

0001162c <xQueueReceiveFromISR>:
   1162c:	e92d4038 	push	{r3, r4, r5, lr}
   11630:	e5903038 	ldr	r3, [r0, #56]	; 0x38
   11634:	e1a04000 	mov	r4, r0
   11638:	e3530000 	cmp	r3, #0
   1163c:	e1a05002 	mov	r5, r2
   11640:	1a000001 	bne	1164c <xQueueReceiveFromISR+0x20>
   11644:	e1a00003 	mov	r0, r3
   11648:	e8bd8038 	pop	{r3, r4, r5, pc}
   1164c:	ebfffe73 	bl	11020 <prvCopyDataFromQueue>
   11650:	e5943038 	ldr	r3, [r4, #56]	; 0x38
   11654:	e2433001 	sub	r3, r3, #1
   11658:	e5843038 	str	r3, [r4, #56]	; 0x38
   1165c:	e5943044 	ldr	r3, [r4, #68]	; 0x44
   11660:	e3730001 	cmn	r3, #1
   11664:	0a000004 	beq	1167c <xQueueReceiveFromISR+0x50>
   11668:	e5943044 	ldr	r3, [r4, #68]	; 0x44
   1166c:	e3a00001 	mov	r0, #1
   11670:	e0833000 	add	r3, r3, r0
   11674:	e5843044 	str	r3, [r4, #68]	; 0x44
   11678:	e8bd8038 	pop	{r3, r4, r5, pc}
   1167c:	e5943010 	ldr	r3, [r4, #16]
   11680:	e3530000 	cmp	r3, #0
   11684:	1a000001 	bne	11690 <xQueueReceiveFromISR+0x64>
   11688:	e3a00001 	mov	r0, #1
   1168c:	e8bd8038 	pop	{r3, r4, r5, pc}
   11690:	e2840010 	add	r0, r4, #16
   11694:	eb00033f 	bl	12398 <xTaskRemoveFromEventList>
   11698:	e3500000 	cmp	r0, #0
   1169c:	0afffff9 	beq	11688 <xQueueReceiveFromISR+0x5c>
   116a0:	e3550000 	cmp	r5, #0
   116a4:	0afffff7 	beq	11688 <xQueueReceiveFromISR+0x5c>
   116a8:	e3a00001 	mov	r0, #1
   116ac:	e5850000 	str	r0, [r5]
   116b0:	e8bd8038 	pop	{r3, r4, r5, pc}

000116b4 <uxQueueMessagesWaiting>:
   116b4:	e92d4010 	push	{r4, lr}
   116b8:	e1a04000 	mov	r4, r0
   116bc:	ebfffc54 	bl	10814 <vPortEnterCritical>
   116c0:	e5944038 	ldr	r4, [r4, #56]	; 0x38
   116c4:	ebfffc5d 	bl	10840 <vPortExitCritical>
   116c8:	e1a00004 	mov	r0, r4
   116cc:	e8bd8010 	pop	{r4, pc}

000116d0 <uxQueueMessagesWaitingFromISR>:
   116d0:	e5900038 	ldr	r0, [r0, #56]	; 0x38
   116d4:	e12fff1e 	bx	lr

000116d8 <vQueueDelete>:
   116d8:	e92d4010 	push	{r4, lr}
   116dc:	e1a04000 	mov	r4, r0
   116e0:	e5900000 	ldr	r0, [r0]
   116e4:	ebfffcda 	bl	10a54 <vPortFree>
   116e8:	e1a00004 	mov	r0, r4
   116ec:	e8bd4010 	pop	{r4, lr}
   116f0:	eafffcd7 	b	10a54 <vPortFree>

000116f4 <xQueueIsQueueEmptyFromISR>:
   116f4:	e5900038 	ldr	r0, [r0, #56]	; 0x38
   116f8:	e2700001 	rsbs	r0, r0, #1
   116fc:	33a00000 	movcc	r0, #0
   11700:	e12fff1e 	bx	lr

00011704 <xQueueIsQueueFullFromISR>:
   11704:	e5902038 	ldr	r2, [r0, #56]	; 0x38
   11708:	e590003c 	ldr	r0, [r0, #60]	; 0x3c
   1170c:	e0523000 	subs	r3, r2, r0
   11710:	e2730000 	rsbs	r0, r3, #0
   11714:	e0b00003 	adcs	r0, r0, r3
   11718:	e12fff1e 	bx	lr

0001171c <prvAddCurrentTaskToDelayedList>:
   1171c:	e59f3050 	ldr	r3, [pc, #80]	; 11774 <prvAddCurrentTaskToDelayedList+0x58>
   11720:	e92d4010 	push	{r4, lr}
   11724:	e5931000 	ldr	r1, [r3]
   11728:	e5932004 	ldr	r2, [r3, #4]
   1172c:	e1a04000 	mov	r4, r0
   11730:	e1500002 	cmp	r0, r2
   11734:	e5810004 	str	r0, [r1, #4]
   11738:	3a000008 	bcc	11760 <prvAddCurrentTaskToDelayedList+0x44>
   1173c:	e593000c 	ldr	r0, [r3, #12]
   11740:	e5931000 	ldr	r1, [r3]
   11744:	e2811004 	add	r1, r1, #4
   11748:	ebfffe0d 	bl	10f84 <vListInsert>
   1174c:	e59f3024 	ldr	r3, [pc, #36]	; 11778 <prvAddCurrentTaskToDelayedList+0x5c>
   11750:	e5932000 	ldr	r2, [r3]
   11754:	e1540002 	cmp	r4, r2
   11758:	35834000 	strcc	r4, [r3]
   1175c:	e8bd8010 	pop	{r4, pc}
   11760:	e5930008 	ldr	r0, [r3, #8]
   11764:	e5931000 	ldr	r1, [r3]
   11768:	e2811004 	add	r1, r1, #4
   1176c:	e8bd4010 	pop	{r4, lr}
   11770:	eafffe03 	b	10f84 <vListInsert>
   11774:	000138b0 			; <UNDEFINED> instruction: 0x000138b0
   11778:	000125c0 	andeq	r2, r1, r0, asr #11

0001177c <xTaskGenericCreate>:
   1177c:	e92d4ff0 	push	{r4, r5, r6, r7, r8, r9, sl, fp, lr}
   11780:	e1a09000 	mov	r9, r0
   11784:	e24dd00c 	sub	sp, sp, #12
   11788:	e3a00048 	mov	r0, #72	; 0x48
   1178c:	e1a07001 	mov	r7, r1
   11790:	e1a06002 	mov	r6, r2
   11794:	e1a0b003 	mov	fp, r3
   11798:	e59d8034 	ldr	r8, [sp, #52]	; 0x34
   1179c:	e59d5038 	ldr	r5, [sp, #56]	; 0x38
   117a0:	ebfffc5a 	bl	10910 <pvPortMalloc>
   117a4:	e2504000 	subs	r4, r0, #0
   117a8:	0a000080 	beq	119b0 <xTaskGenericCreate+0x234>
   117ac:	e3550000 	cmp	r5, #0
   117b0:	15845030 	strne	r5, [r4, #48]	; 0x30
   117b4:	11a02106 	lslne	r2, r6, #2
   117b8:	0a000071 	beq	11984 <xTaskGenericCreate+0x208>
   117bc:	e3a010a5 	mov	r1, #165	; 0xa5
   117c0:	e1a00005 	mov	r0, r5
   117c4:	ebfffcbf 	bl	10ac8 <memset>
   117c8:	e2460001 	sub	r0, r6, #1
   117cc:	e5943030 	ldr	r3, [r4, #48]	; 0x30
   117d0:	e59d6030 	ldr	r6, [sp, #48]	; 0x30
   117d4:	e0833100 	add	r3, r3, r0, lsl #2
   117d8:	e1a01007 	mov	r1, r7
   117dc:	e3a02010 	mov	r2, #16
   117e0:	e3a05000 	mov	r5, #0
   117e4:	e3560004 	cmp	r6, #4
   117e8:	23a06004 	movcs	r6, #4
   117ec:	e2840034 	add	r0, r4, #52	; 0x34
   117f0:	e2847004 	add	r7, r4, #4
   117f4:	e3c3a007 	bic	sl, r3, #7
   117f8:	ebfffcbb 	bl	10aec <strncpy>
   117fc:	e1a00007 	mov	r0, r7
   11800:	e5c45043 	strb	r5, [r4, #67]	; 0x43
   11804:	e584602c 	str	r6, [r4, #44]	; 0x2c
   11808:	ebfffdce 	bl	10f48 <vListInitialiseItem>
   1180c:	e2666005 	rsb	r6, r6, #5
   11810:	e2840018 	add	r0, r4, #24
   11814:	ebfffdcb 	bl	10f48 <vListInitialiseItem>
   11818:	e5845044 	str	r5, [r4, #68]	; 0x44
   1181c:	e1a01009 	mov	r1, r9
   11820:	e1a0200b 	mov	r2, fp
   11824:	e5844010 	str	r4, [r4, #16]
   11828:	e5846018 	str	r6, [r4, #24]
   1182c:	e5844024 	str	r4, [r4, #36]	; 0x24
   11830:	e1a0000a 	mov	r0, sl
   11834:	ebfffb33 	bl	10508 <pxPortInitialiseStack>
   11838:	e1580005 	cmp	r8, r5
   1183c:	e59f5174 	ldr	r5, [pc, #372]	; 119b8 <xTaskGenericCreate+0x23c>
   11840:	e5840000 	str	r0, [r4]
   11844:	15884000 	strne	r4, [r8]
   11848:	ebfffbf1 	bl	10814 <vPortEnterCritical>
   1184c:	e5953010 	ldr	r3, [r5, #16]
   11850:	e2833001 	add	r3, r3, #1
   11854:	e5853010 	str	r3, [r5, #16]
   11858:	e5953000 	ldr	r3, [r5]
   1185c:	e3530000 	cmp	r3, #0
   11860:	0a00002b 	beq	11914 <xTaskGenericCreate+0x198>
   11864:	e59530dc 	ldr	r3, [r5, #220]	; 0xdc
   11868:	e3530000 	cmp	r3, #0
   1186c:	0a00001d 	beq	118e8 <xTaskGenericCreate+0x16c>
   11870:	e2856014 	add	r6, r5, #20
   11874:	e594302c 	ldr	r3, [r4, #44]	; 0x2c
   11878:	e59520e0 	ldr	r2, [r5, #224]	; 0xe0
   1187c:	e59510e8 	ldr	r1, [r5, #232]	; 0xe8
   11880:	e1530002 	cmp	r3, r2
   11884:	859f212c 	ldrhi	r2, [pc, #300]	; 119b8 <xTaskGenericCreate+0x23c>
   11888:	e0830103 	add	r0, r3, r3, lsl #2
   1188c:	858230e0 	strhi	r3, [r2, #224]	; 0xe0
   11890:	e59520e4 	ldr	r2, [r5, #228]	; 0xe4
   11894:	e1530001 	cmp	r3, r1
   11898:	e2822001 	add	r2, r2, #1
   1189c:	e58520e4 	str	r2, [r5, #228]	; 0xe4
   118a0:	859f2110 	ldrhi	r2, [pc, #272]	; 119b8 <xTaskGenericCreate+0x23c>
   118a4:	e0860100 	add	r0, r6, r0, lsl #2
   118a8:	e1a01007 	mov	r1, r7
   118ac:	858230e8 	strhi	r3, [r2, #232]	; 0xe8
   118b0:	ebfffda7 	bl	10f54 <vListInsertEnd>
   118b4:	ebfffbe1 	bl	10840 <vPortExitCritical>
   118b8:	e59530dc 	ldr	r3, [r5, #220]	; 0xdc
   118bc:	e3530000 	cmp	r3, #0
   118c0:	0a000010 	beq	11908 <xTaskGenericCreate+0x18c>
   118c4:	e59f30ec 	ldr	r3, [pc, #236]	; 119b8 <xTaskGenericCreate+0x23c>
   118c8:	e59d2030 	ldr	r2, [sp, #48]	; 0x30
   118cc:	e5933000 	ldr	r3, [r3]
   118d0:	e593302c 	ldr	r3, [r3, #44]	; 0x2c
   118d4:	e1520003 	cmp	r2, r3
   118d8:	9a00000a 	bls	11908 <xTaskGenericCreate+0x18c>
   118dc:	ef000000 	svc	0x00000000
   118e0:	e3a00001 	mov	r0, #1
   118e4:	ea000008 	b	1190c <xTaskGenericCreate+0x190>
   118e8:	e5953000 	ldr	r3, [r5]
   118ec:	e59d2030 	ldr	r2, [sp, #48]	; 0x30
   118f0:	e593302c 	ldr	r3, [r3, #44]	; 0x2c
   118f4:	e1520003 	cmp	r2, r3
   118f8:	21a06005 	movcs	r6, r5
   118fc:	24864014 	strcs	r4, [r6], #20
   11900:	2affffdb 	bcs	11874 <xTaskGenericCreate+0xf8>
   11904:	eaffffd9 	b	11870 <xTaskGenericCreate+0xf4>
   11908:	e3a00001 	mov	r0, #1
   1190c:	e28dd00c 	add	sp, sp, #12
   11910:	e8bd8ff0 	pop	{r4, r5, r6, r7, r8, r9, sl, fp, pc}
   11914:	e5854000 	str	r4, [r5]
   11918:	e5952010 	ldr	r2, [r5, #16]
   1191c:	e3520001 	cmp	r2, #1
   11920:	1affffd2 	bne	11870 <xTaskGenericCreate+0xf4>
   11924:	e1a08003 	mov	r8, r3
   11928:	e2856014 	add	r6, r5, #20
   1192c:	e0880108 	add	r0, r8, r8, lsl #2
   11930:	e0860100 	add	r0, r6, r0, lsl #2
   11934:	e2888001 	add	r8, r8, #1
   11938:	ebfffd79 	bl	10f24 <vListInitialise>
   1193c:	e3580005 	cmp	r8, #5
   11940:	e59f9070 	ldr	r9, [pc, #112]	; 119b8 <xTaskGenericCreate+0x23c>
   11944:	1afffff8 	bne	1192c <xTaskGenericCreate+0x1b0>
   11948:	e289b078 	add	fp, r9, #120	; 0x78
   1194c:	e1a0000b 	mov	r0, fp
   11950:	e289808c 	add	r8, r9, #140	; 0x8c
   11954:	ebfffd72 	bl	10f24 <vListInitialise>
   11958:	e1a00008 	mov	r0, r8
   1195c:	ebfffd70 	bl	10f24 <vListInitialise>
   11960:	e28900a0 	add	r0, r9, #160	; 0xa0
   11964:	ebfffd6e 	bl	10f24 <vListInitialise>
   11968:	e28900b4 	add	r0, r9, #180	; 0xb4
   1196c:	ebfffd6c 	bl	10f24 <vListInitialise>
   11970:	e28900c8 	add	r0, r9, #200	; 0xc8
   11974:	ebfffd6a 	bl	10f24 <vListInitialise>
   11978:	e589b00c 	str	fp, [r9, #12]
   1197c:	e5898008 	str	r8, [r9, #8]
   11980:	eaffffbb 	b	11874 <xTaskGenericCreate+0xf8>
   11984:	e1a02106 	lsl	r2, r6, #2
   11988:	e1a00002 	mov	r0, r2
   1198c:	e58d2004 	str	r2, [sp, #4]
   11990:	ebfffbde 	bl	10910 <pvPortMalloc>
   11994:	e3500000 	cmp	r0, #0
   11998:	e1a05000 	mov	r5, r0
   1199c:	e5840030 	str	r0, [r4, #48]	; 0x30
   119a0:	e59d2004 	ldr	r2, [sp, #4]
   119a4:	1affff84 	bne	117bc <xTaskGenericCreate+0x40>
   119a8:	e1a00004 	mov	r0, r4
   119ac:	ebfffc28 	bl	10a54 <vPortFree>
   119b0:	e3e00000 	mvn	r0, #0
   119b4:	eaffffd4 	b	1190c <xTaskGenericCreate+0x190>
   119b8:	000138b0 			; <UNDEFINED> instruction: 0x000138b0

000119bc <vTaskDelete>:
   119bc:	e92d40f8 	push	{r3, r4, r5, r6, r7, lr}
   119c0:	e59f408c 	ldr	r4, [pc, #140]	; 11a54 <vTaskDelete+0x98>
   119c4:	e1a05000 	mov	r5, r0
   119c8:	ebfffb91 	bl	10814 <vPortEnterCritical>
   119cc:	e5943000 	ldr	r3, [r4]
   119d0:	e1550003 	cmp	r5, r3
   119d4:	0a00001b 	beq	11a48 <vTaskDelete+0x8c>
   119d8:	e3550000 	cmp	r5, #0
   119dc:	11a06005 	movne	r6, r5
   119e0:	0a000018 	beq	11a48 <vTaskDelete+0x8c>
   119e4:	e2867004 	add	r7, r6, #4
   119e8:	e1a00007 	mov	r0, r7
   119ec:	ebfffd7c 	bl	10fe4 <vListRemove>
   119f0:	e5963028 	ldr	r3, [r6, #40]	; 0x28
   119f4:	e3530000 	cmp	r3, #0
   119f8:	0a000001 	beq	11a04 <vTaskDelete+0x48>
   119fc:	e2860018 	add	r0, r6, #24
   11a00:	ebfffd77 	bl	10fe4 <vListRemove>
   11a04:	e59f004c 	ldr	r0, [pc, #76]	; 11a58 <vTaskDelete+0x9c>
   11a08:	e1a01007 	mov	r1, r7
   11a0c:	ebfffd50 	bl	10f54 <vListInsertEnd>
   11a10:	e59420ec 	ldr	r2, [r4, #236]	; 0xec
   11a14:	e59430e4 	ldr	r3, [r4, #228]	; 0xe4
   11a18:	e2822001 	add	r2, r2, #1
   11a1c:	e2833001 	add	r3, r3, #1
   11a20:	e58430e4 	str	r3, [r4, #228]	; 0xe4
   11a24:	e58420ec 	str	r2, [r4, #236]	; 0xec
   11a28:	ebfffb84 	bl	10840 <vPortExitCritical>
   11a2c:	e59430dc 	ldr	r3, [r4, #220]	; 0xdc
   11a30:	e3530000 	cmp	r3, #0
   11a34:	08bd80f8 	popeq	{r3, r4, r5, r6, r7, pc}
   11a38:	e3550000 	cmp	r5, #0
   11a3c:	18bd80f8 	popne	{r3, r4, r5, r6, r7, pc}
   11a40:	ef000000 	svc	0x00000000
   11a44:	e8bd80f8 	pop	{r3, r4, r5, r6, r7, pc}
   11a48:	e5946000 	ldr	r6, [r4]
   11a4c:	e3a05000 	mov	r5, #0
   11a50:	eaffffe3 	b	119e4 <vTaskDelete+0x28>
   11a54:	000138b0 			; <UNDEFINED> instruction: 0x000138b0
   11a58:	00013964 	andeq	r3, r1, r4, ror #18

00011a5c <uxTaskPriorityGet>:
   11a5c:	e92d4010 	push	{r4, lr}
   11a60:	e1a04000 	mov	r4, r0
   11a64:	ebfffb6a 	bl	10814 <vPortEnterCritical>
   11a68:	e3540000 	cmp	r4, #0
   11a6c:	059f3010 	ldreq	r3, [pc, #16]	; 11a84 <uxTaskPriorityGet+0x28>
   11a70:	05934000 	ldreq	r4, [r3]
   11a74:	e594402c 	ldr	r4, [r4, #44]	; 0x2c
   11a78:	ebfffb70 	bl	10840 <vPortExitCritical>
   11a7c:	e1a00004 	mov	r0, r4
   11a80:	e8bd8010 	pop	{r4, pc}
   11a84:	000138b0 			; <UNDEFINED> instruction: 0x000138b0

00011a88 <vTaskPrioritySet>:
   11a88:	e92d41f0 	push	{r4, r5, r6, r7, r8, lr}
   11a8c:	e1a04000 	mov	r4, r0
   11a90:	e3510004 	cmp	r1, #4
   11a94:	31a06001 	movcc	r6, r1
   11a98:	23a06004 	movcs	r6, #4
   11a9c:	ebfffb5c 	bl	10814 <vPortEnterCritical>
   11aa0:	e59f30b0 	ldr	r3, [pc, #176]	; 11b58 <vTaskPrioritySet+0xd0>
   11aa4:	e5932000 	ldr	r2, [r3]
   11aa8:	e1540002 	cmp	r4, r2
   11aac:	0a00001a 	beq	11b1c <vTaskPrioritySet+0x94>
   11ab0:	e3540000 	cmp	r4, #0
   11ab4:	11a05004 	movne	r5, r4
   11ab8:	0a000017 	beq	11b1c <vTaskPrioritySet+0x94>
   11abc:	e595302c 	ldr	r3, [r5, #44]	; 0x2c
   11ac0:	e1530006 	cmp	r3, r6
   11ac4:	0a00000f 	beq	11b08 <vTaskPrioritySet+0x80>
   11ac8:	3a000010 	bcc	11b10 <vTaskPrioritySet+0x88>
   11acc:	e2744001 	rsbs	r4, r4, #1
   11ad0:	33a04000 	movcc	r4, #0
   11ad4:	e59f707c 	ldr	r7, [pc, #124]	; 11b58 <vTaskPrioritySet+0xd0>
   11ad8:	e0833103 	add	r3, r3, r3, lsl #2
   11adc:	e2878014 	add	r8, r7, #20
   11ae0:	e5951014 	ldr	r1, [r5, #20]
   11ae4:	e0883103 	add	r3, r8, r3, lsl #2
   11ae8:	e2662005 	rsb	r2, r6, #5
   11aec:	e1510003 	cmp	r1, r3
   11af0:	e585602c 	str	r6, [r5, #44]	; 0x2c
   11af4:	e5852018 	str	r2, [r5, #24]
   11af8:	0a00000a 	beq	11b28 <vTaskPrioritySet+0xa0>
   11afc:	e3540001 	cmp	r4, #1
   11b00:	1a000000 	bne	11b08 <vTaskPrioritySet+0x80>
   11b04:	ef000000 	svc	0x00000000
   11b08:	e8bd41f0 	pop	{r4, r5, r6, r7, r8, lr}
   11b0c:	eafffb4b 	b	10840 <vPortExitCritical>
   11b10:	e2944000 	adds	r4, r4, #0
   11b14:	13a04001 	movne	r4, #1
   11b18:	eaffffed 	b	11ad4 <vTaskPrioritySet+0x4c>
   11b1c:	e5935000 	ldr	r5, [r3]
   11b20:	e3a04000 	mov	r4, #0
   11b24:	eaffffe4 	b	11abc <vTaskPrioritySet+0x34>
   11b28:	e2856004 	add	r6, r5, #4
   11b2c:	e1a00006 	mov	r0, r6
   11b30:	ebfffd2b 	bl	10fe4 <vListRemove>
   11b34:	e595302c 	ldr	r3, [r5, #44]	; 0x2c
   11b38:	e59720e8 	ldr	r2, [r7, #232]	; 0xe8
   11b3c:	e0830103 	add	r0, r3, r3, lsl #2
   11b40:	e1530002 	cmp	r3, r2
   11b44:	e0880100 	add	r0, r8, r0, lsl #2
   11b48:	e1a01006 	mov	r1, r6
   11b4c:	858730e8 	strhi	r3, [r7, #232]	; 0xe8
   11b50:	ebfffcff 	bl	10f54 <vListInsertEnd>
   11b54:	eaffffe8 	b	11afc <vTaskPrioritySet+0x74>
   11b58:	000138b0 			; <UNDEFINED> instruction: 0x000138b0

00011b5c <xTaskIsTaskSuspended>:
   11b5c:	e5903014 	ldr	r3, [r0, #20]
   11b60:	e59f2028 	ldr	r2, [pc, #40]	; 11b90 <xTaskIsTaskSuspended+0x34>
   11b64:	e1530002 	cmp	r3, r2
   11b68:	0a000001 	beq	11b74 <xTaskIsTaskSuspended+0x18>
   11b6c:	e3a00000 	mov	r0, #0
   11b70:	e12fff1e 	bx	lr
   11b74:	e5900028 	ldr	r0, [r0, #40]	; 0x28
   11b78:	e2433028 	sub	r3, r3, #40	; 0x28
   11b7c:	e1500003 	cmp	r0, r3
   11b80:	0afffff9 	beq	11b6c <xTaskIsTaskSuspended+0x10>
   11b84:	e2700001 	rsbs	r0, r0, #1
   11b88:	33a00000 	movcc	r0, #0
   11b8c:	e12fff1e 	bx	lr
   11b90:	00013978 	andeq	r3, r1, r8, ror r9

00011b94 <vTaskResume>:
   11b94:	e92d4070 	push	{r4, r5, r6, lr}
   11b98:	e2504000 	subs	r4, r0, #0
   11b9c:	08bd8070 	popeq	{r4, r5, r6, pc}
   11ba0:	e59f5070 	ldr	r5, [pc, #112]	; 11c18 <vTaskResume+0x84>
   11ba4:	e5953000 	ldr	r3, [r5]
   11ba8:	e1540003 	cmp	r4, r3
   11bac:	08bd8070 	popeq	{r4, r5, r6, pc}
   11bb0:	ebfffb17 	bl	10814 <vPortEnterCritical>
   11bb4:	e1a00004 	mov	r0, r4
   11bb8:	ebffffe7 	bl	11b5c <xTaskIsTaskSuspended>
   11bbc:	e3500001 	cmp	r0, #1
   11bc0:	0a000001 	beq	11bcc <vTaskResume+0x38>
   11bc4:	e8bd4070 	pop	{r4, r5, r6, lr}
   11bc8:	eafffb1c 	b	10840 <vPortExitCritical>
   11bcc:	e2846004 	add	r6, r4, #4
   11bd0:	e1a00006 	mov	r0, r6
   11bd4:	ebfffd02 	bl	10fe4 <vListRemove>
   11bd8:	e594302c 	ldr	r3, [r4, #44]	; 0x2c
   11bdc:	e59520e8 	ldr	r2, [r5, #232]	; 0xe8
   11be0:	e59f0034 	ldr	r0, [pc, #52]	; 11c1c <vTaskResume+0x88>
   11be4:	e1530002 	cmp	r3, r2
   11be8:	858530e8 	strhi	r3, [r5, #232]	; 0xe8
   11bec:	e0833103 	add	r3, r3, r3, lsl #2
   11bf0:	e0800103 	add	r0, r0, r3, lsl #2
   11bf4:	e1a01006 	mov	r1, r6
   11bf8:	ebfffcd5 	bl	10f54 <vListInsertEnd>
   11bfc:	e5953000 	ldr	r3, [r5]
   11c00:	e594202c 	ldr	r2, [r4, #44]	; 0x2c
   11c04:	e593302c 	ldr	r3, [r3, #44]	; 0x2c
   11c08:	e1520003 	cmp	r2, r3
   11c0c:	3affffec 	bcc	11bc4 <vTaskResume+0x30>
   11c10:	ef000000 	svc	0x00000000
   11c14:	eaffffea 	b	11bc4 <vTaskResume+0x30>
   11c18:	000138b0 			; <UNDEFINED> instruction: 0x000138b0
   11c1c:	000138c4 	andeq	r3, r1, r4, asr #17

00011c20 <xTaskResumeFromISR>:
   11c20:	e92d40f8 	push	{r3, r4, r5, r6, r7, lr}
   11c24:	e1a05000 	mov	r5, r0
   11c28:	ebffffcb 	bl	11b5c <xTaskIsTaskSuspended>
   11c2c:	e3500001 	cmp	r0, #1
   11c30:	13a04000 	movne	r4, #0
   11c34:	0a000001 	beq	11c40 <xTaskResumeFromISR+0x20>
   11c38:	e1a00004 	mov	r0, r4
   11c3c:	e8bd80f8 	pop	{r3, r4, r5, r6, r7, pc}
   11c40:	e59f6070 	ldr	r6, [pc, #112]	; 11cb8 <xTaskResumeFromISR+0x98>
   11c44:	e59630f0 	ldr	r3, [r6, #240]	; 0xf0
   11c48:	e3530000 	cmp	r3, #0
   11c4c:	1a000013 	bne	11ca0 <xTaskResumeFromISR+0x80>
   11c50:	e5963000 	ldr	r3, [r6]
   11c54:	e595402c 	ldr	r4, [r5, #44]	; 0x2c
   11c58:	e593302c 	ldr	r3, [r3, #44]	; 0x2c
   11c5c:	e2857004 	add	r7, r5, #4
   11c60:	e1540003 	cmp	r4, r3
   11c64:	e1a00007 	mov	r0, r7
   11c68:	33a04000 	movcc	r4, #0
   11c6c:	23a04001 	movcs	r4, #1
   11c70:	ebfffcdb 	bl	10fe4 <vListRemove>
   11c74:	e595302c 	ldr	r3, [r5, #44]	; 0x2c
   11c78:	e59620e8 	ldr	r2, [r6, #232]	; 0xe8
   11c7c:	e59f0038 	ldr	r0, [pc, #56]	; 11cbc <xTaskResumeFromISR+0x9c>
   11c80:	e1530002 	cmp	r3, r2
   11c84:	858630e8 	strhi	r3, [r6, #232]	; 0xe8
   11c88:	e0833103 	add	r3, r3, r3, lsl #2
   11c8c:	e0800103 	add	r0, r0, r3, lsl #2
   11c90:	e1a01007 	mov	r1, r7
   11c94:	ebfffcae 	bl	10f54 <vListInsertEnd>
   11c98:	e1a00004 	mov	r0, r4
   11c9c:	e8bd80f8 	pop	{r3, r4, r5, r6, r7, pc}
   11ca0:	e28600a0 	add	r0, r6, #160	; 0xa0
   11ca4:	e2851018 	add	r1, r5, #24
   11ca8:	e3a04000 	mov	r4, #0
   11cac:	ebfffca8 	bl	10f54 <vListInsertEnd>
   11cb0:	e1a00004 	mov	r0, r4
   11cb4:	e8bd80f8 	pop	{r3, r4, r5, r6, r7, pc}
   11cb8:	000138b0 			; <UNDEFINED> instruction: 0x000138b0
   11cbc:	000138c4 	andeq	r3, r1, r4, asr #17

00011cc0 <vTaskStartScheduler>:
   11cc0:	e92d4010 	push	{r4, lr}
   11cc4:	e3a04000 	mov	r4, #0
   11cc8:	e24dd010 	sub	sp, sp, #16
   11ccc:	e58d4000 	str	r4, [sp]
   11cd0:	e58d4004 	str	r4, [sp, #4]
   11cd4:	e58d4008 	str	r4, [sp, #8]
   11cd8:	e58d400c 	str	r4, [sp, #12]
   11cdc:	e59f0048 	ldr	r0, [pc, #72]	; 11d2c <vTaskStartScheduler+0x6c>
   11ce0:	e59f1048 	ldr	r1, [pc, #72]	; 11d30 <vTaskStartScheduler+0x70>
   11ce4:	e3a02080 	mov	r2, #128	; 0x80
   11ce8:	e1a03004 	mov	r3, r4
   11cec:	ebfffea2 	bl	1177c <xTaskGenericCreate>
   11cf0:	e3500001 	cmp	r0, #1
   11cf4:	0a000001 	beq	11d00 <vTaskStartScheduler+0x40>
   11cf8:	e28dd010 	add	sp, sp, #16
   11cfc:	e8bd8010 	pop	{r4, pc}
   11d00:	e92d0001 	push	{r0}
   11d04:	e10f0000 	mrs	r0, CPSR
   11d08:	e38000c0 	orr	r0, r0, #192	; 0xc0
   11d0c:	e129f000 	msr	CPSR_fc, r0
   11d10:	e8bd0001 	pop	{r0}
   11d14:	e59f3018 	ldr	r3, [pc, #24]	; 11d34 <vTaskStartScheduler+0x74>
   11d18:	e58300dc 	str	r0, [r3, #220]	; 0xdc
   11d1c:	e5834004 	str	r4, [r3, #4]
   11d20:	e28dd010 	add	sp, sp, #16
   11d24:	e8bd4010 	pop	{r4, lr}
   11d28:	eafffa29 	b	105d4 <xPortStartScheduler>
   11d2c:	00012020 	andeq	r2, r1, r0, lsr #32
   11d30:	000125b0 			; <UNDEFINED> instruction: 0x000125b0
   11d34:	000138b0 			; <UNDEFINED> instruction: 0x000138b0

00011d38 <vTaskEndScheduler>:
   11d38:	e92d0001 	push	{r0}
   11d3c:	e10f0000 	mrs	r0, CPSR
   11d40:	e38000c0 	orr	r0, r0, #192	; 0xc0
   11d44:	e129f000 	msr	CPSR_fc, r0
   11d48:	e8bd0001 	pop	{r0}
   11d4c:	e59f3008 	ldr	r3, [pc, #8]	; 11d5c <vTaskEndScheduler+0x24>
   11d50:	e3a02000 	mov	r2, #0
   11d54:	e58320dc 	str	r2, [r3, #220]	; 0xdc
   11d58:	eafffa39 	b	10644 <vPortEndScheduler>
   11d5c:	000138b0 			; <UNDEFINED> instruction: 0x000138b0

00011d60 <vTaskSuspendAll>:
   11d60:	e59f300c 	ldr	r3, [pc, #12]	; 11d74 <vTaskSuspendAll+0x14>
   11d64:	e59320f0 	ldr	r2, [r3, #240]	; 0xf0
   11d68:	e2822001 	add	r2, r2, #1
   11d6c:	e58320f0 	str	r2, [r3, #240]	; 0xf0
   11d70:	e12fff1e 	bx	lr
   11d74:	000138b0 			; <UNDEFINED> instruction: 0x000138b0

00011d78 <xTaskGetTickCount>:
   11d78:	e92d4010 	push	{r4, lr}
   11d7c:	ebfffaa4 	bl	10814 <vPortEnterCritical>
   11d80:	e59f300c 	ldr	r3, [pc, #12]	; 11d94 <xTaskGetTickCount+0x1c>
   11d84:	e5934004 	ldr	r4, [r3, #4]
   11d88:	ebfffaac 	bl	10840 <vPortExitCritical>
   11d8c:	e1a00004 	mov	r0, r4
   11d90:	e8bd8010 	pop	{r4, pc}
   11d94:	000138b0 			; <UNDEFINED> instruction: 0x000138b0

00011d98 <xTaskGetTickCountFromISR>:
   11d98:	e59f3004 	ldr	r3, [pc, #4]	; 11da4 <xTaskGetTickCountFromISR+0xc>
   11d9c:	e5930004 	ldr	r0, [r3, #4]
   11da0:	e12fff1e 	bx	lr
   11da4:	000138b0 			; <UNDEFINED> instruction: 0x000138b0

00011da8 <uxTaskGetNumberOfTasks>:
   11da8:	e59f3004 	ldr	r3, [pc, #4]	; 11db4 <uxTaskGetNumberOfTasks+0xc>
   11dac:	e5930010 	ldr	r0, [r3, #16]
   11db0:	e12fff1e 	bx	lr
   11db4:	000138b0 			; <UNDEFINED> instruction: 0x000138b0

00011db8 <vTaskIncrementTick>:
   11db8:	e92d45f8 	push	{r3, r4, r5, r6, r7, r8, sl, lr}
   11dbc:	e59f5148 	ldr	r5, [pc, #328]	; 11f0c <vTaskIncrementTick+0x154>
   11dc0:	e59530f0 	ldr	r3, [r5, #240]	; 0xf0
   11dc4:	e3530000 	cmp	r3, #0
   11dc8:	1a000036 	bne	11ea8 <vTaskIncrementTick+0xf0>
   11dcc:	e5953004 	ldr	r3, [r5, #4]
   11dd0:	e2833001 	add	r3, r3, #1
   11dd4:	e5853004 	str	r3, [r5, #4]
   11dd8:	e5953004 	ldr	r3, [r5, #4]
   11ddc:	e3530000 	cmp	r3, #0
   11de0:	0a000034 	beq	11eb8 <vTaskIncrementTick+0x100>
   11de4:	e59fa124 	ldr	sl, [pc, #292]	; 11f10 <vTaskIncrementTick+0x158>
   11de8:	e59a3000 	ldr	r3, [sl]
   11dec:	e5952004 	ldr	r2, [r5, #4]
   11df0:	e59f7114 	ldr	r7, [pc, #276]	; 11f0c <vTaskIncrementTick+0x154>
   11df4:	e1520003 	cmp	r2, r3
   11df8:	38bd85f8 	popcc	{r3, r4, r5, r6, r7, r8, sl, pc}
   11dfc:	e597300c 	ldr	r3, [r7, #12]
   11e00:	e5933000 	ldr	r3, [r3]
   11e04:	e3530000 	cmp	r3, #0
   11e08:	0a000023 	beq	11e9c <vTaskIncrementTick+0xe4>
   11e0c:	e597300c 	ldr	r3, [r7, #12]
   11e10:	e593300c 	ldr	r3, [r3, #12]
   11e14:	e593400c 	ldr	r4, [r3, #12]
   11e18:	e5972004 	ldr	r2, [r7, #4]
   11e1c:	e5943004 	ldr	r3, [r4, #4]
   11e20:	e1530002 	cmp	r3, r2
   11e24:	8a000036 	bhi	11f04 <vTaskIncrementTick+0x14c>
   11e28:	e2878014 	add	r8, r7, #20
   11e2c:	ea000006 	b	11e4c <vTaskIncrementTick+0x94>
   11e30:	e597300c 	ldr	r3, [r7, #12]
   11e34:	e593300c 	ldr	r3, [r3, #12]
   11e38:	e593400c 	ldr	r4, [r3, #12]
   11e3c:	e5972004 	ldr	r2, [r7, #4]
   11e40:	e5943004 	ldr	r3, [r4, #4]
   11e44:	e1530002 	cmp	r3, r2
   11e48:	8a00002d 	bhi	11f04 <vTaskIncrementTick+0x14c>
   11e4c:	e2846004 	add	r6, r4, #4
   11e50:	e1a00006 	mov	r0, r6
   11e54:	ebfffc62 	bl	10fe4 <vListRemove>
   11e58:	e5943028 	ldr	r3, [r4, #40]	; 0x28
   11e5c:	e2840018 	add	r0, r4, #24
   11e60:	e3530000 	cmp	r3, #0
   11e64:	0a000000 	beq	11e6c <vTaskIncrementTick+0xb4>
   11e68:	ebfffc5d 	bl	10fe4 <vListRemove>
   11e6c:	e594302c 	ldr	r3, [r4, #44]	; 0x2c
   11e70:	e59520e8 	ldr	r2, [r5, #232]	; 0xe8
   11e74:	e0830103 	add	r0, r3, r3, lsl #2
   11e78:	e1530002 	cmp	r3, r2
   11e7c:	e1a01006 	mov	r1, r6
   11e80:	e0880100 	add	r0, r8, r0, lsl #2
   11e84:	858730e8 	strhi	r3, [r7, #232]	; 0xe8
   11e88:	ebfffc31 	bl	10f54 <vListInsertEnd>
   11e8c:	e595300c 	ldr	r3, [r5, #12]
   11e90:	e5933000 	ldr	r3, [r3]
   11e94:	e3530000 	cmp	r3, #0
   11e98:	1affffe4 	bne	11e30 <vTaskIncrementTick+0x78>
   11e9c:	e3e03000 	mvn	r3, #0
   11ea0:	e58a3000 	str	r3, [sl]
   11ea4:	e8bd85f8 	pop	{r3, r4, r5, r6, r7, r8, sl, pc}
   11ea8:	e59530f8 	ldr	r3, [r5, #248]	; 0xf8
   11eac:	e2833001 	add	r3, r3, #1
   11eb0:	e58530f8 	str	r3, [r5, #248]	; 0xf8
   11eb4:	e8bd85f8 	pop	{r3, r4, r5, r6, r7, r8, sl, pc}
   11eb8:	e595300c 	ldr	r3, [r5, #12]
   11ebc:	e5952008 	ldr	r2, [r5, #8]
   11ec0:	e585200c 	str	r2, [r5, #12]
   11ec4:	e5853008 	str	r3, [r5, #8]
   11ec8:	e59530f4 	ldr	r3, [r5, #244]	; 0xf4
   11ecc:	e2833001 	add	r3, r3, #1
   11ed0:	e58530f4 	str	r3, [r5, #244]	; 0xf4
   11ed4:	e595300c 	ldr	r3, [r5, #12]
   11ed8:	e5933000 	ldr	r3, [r3]
   11edc:	e3530000 	cmp	r3, #0
   11ee0:	1595300c 	ldrne	r3, [r5, #12]
   11ee4:	059fa024 	ldreq	sl, [pc, #36]	; 11f10 <vTaskIncrementTick+0x158>
   11ee8:	1593300c 	ldrne	r3, [r3, #12]
   11eec:	159fa01c 	ldrne	sl, [pc, #28]	; 11f10 <vTaskIncrementTick+0x158>
   11ef0:	1593300c 	ldrne	r3, [r3, #12]
   11ef4:	03e03000 	mvneq	r3, #0
   11ef8:	15933004 	ldrne	r3, [r3, #4]
   11efc:	e58a3000 	str	r3, [sl]
   11f00:	eaffffb9 	b	11dec <vTaskIncrementTick+0x34>
   11f04:	e58a3000 	str	r3, [sl]
   11f08:	e8bd85f8 	pop	{r3, r4, r5, r6, r7, r8, sl, pc}
   11f0c:	000138b0 			; <UNDEFINED> instruction: 0x000138b0
   11f10:	000125c0 	andeq	r2, r1, r0, asr #11

00011f14 <xTaskResumeAll>:
   11f14:	e92d45f8 	push	{r3, r4, r5, r6, r7, r8, sl, lr}
   11f18:	e59f40fc 	ldr	r4, [pc, #252]	; 1201c <xTaskResumeAll+0x108>
   11f1c:	ebfffa3c 	bl	10814 <vPortEnterCritical>
   11f20:	e59430f0 	ldr	r3, [r4, #240]	; 0xf0
   11f24:	e2433001 	sub	r3, r3, #1
   11f28:	e58430f0 	str	r3, [r4, #240]	; 0xf0
   11f2c:	e59480f0 	ldr	r8, [r4, #240]	; 0xf0
   11f30:	e3580000 	cmp	r8, #0
   11f34:	1a000004 	bne	11f4c <xTaskResumeAll+0x38>
   11f38:	e5943010 	ldr	r3, [r4, #16]
   11f3c:	e3530000 	cmp	r3, #0
   11f40:	11a07004 	movne	r7, r4
   11f44:	1284a014 	addne	sl, r4, #20
   11f48:	1a000017 	bne	11fac <xTaskResumeAll+0x98>
   11f4c:	e3a04000 	mov	r4, #0
   11f50:	ebfffa3a 	bl	10840 <vPortExitCritical>
   11f54:	e1a00004 	mov	r0, r4
   11f58:	e8bd85f8 	pop	{r3, r4, r5, r6, r7, r8, sl, pc}
   11f5c:	e59730ac 	ldr	r3, [r7, #172]	; 0xac
   11f60:	e593500c 	ldr	r5, [r3, #12]
   11f64:	e2850018 	add	r0, r5, #24
   11f68:	e2856004 	add	r6, r5, #4
   11f6c:	ebfffc1c 	bl	10fe4 <vListRemove>
   11f70:	e1a00006 	mov	r0, r6
   11f74:	ebfffc1a 	bl	10fe4 <vListRemove>
   11f78:	e595302c 	ldr	r3, [r5, #44]	; 0x2c
   11f7c:	e59720e8 	ldr	r2, [r7, #232]	; 0xe8
   11f80:	e0830103 	add	r0, r3, r3, lsl #2
   11f84:	e1530002 	cmp	r3, r2
   11f88:	e08a0100 	add	r0, sl, r0, lsl #2
   11f8c:	e1a01006 	mov	r1, r6
   11f90:	858730e8 	strhi	r3, [r7, #232]	; 0xe8
   11f94:	ebfffbee 	bl	10f54 <vListInsertEnd>
   11f98:	e5943000 	ldr	r3, [r4]
   11f9c:	e595202c 	ldr	r2, [r5, #44]	; 0x2c
   11fa0:	e593302c 	ldr	r3, [r3, #44]	; 0x2c
   11fa4:	e1520003 	cmp	r2, r3
   11fa8:	23a08001 	movcs	r8, #1
   11fac:	e59430a0 	ldr	r3, [r4, #160]	; 0xa0
   11fb0:	e59f2064 	ldr	r2, [pc, #100]	; 1201c <xTaskResumeAll+0x108>
   11fb4:	e3530000 	cmp	r3, #0
   11fb8:	1affffe7 	bne	11f5c <xTaskResumeAll+0x48>
   11fbc:	e59230f8 	ldr	r3, [r2, #248]	; 0xf8
   11fc0:	e3530000 	cmp	r3, #0
   11fc4:	1a000009 	bne	11ff0 <xTaskResumeAll+0xdc>
   11fc8:	e3580001 	cmp	r8, #1
   11fcc:	0a000002 	beq	11fdc <xTaskResumeAll+0xc8>
   11fd0:	e59230fc 	ldr	r3, [r2, #252]	; 0xfc
   11fd4:	e3530001 	cmp	r3, #1
   11fd8:	1affffdb 	bne	11f4c <xTaskResumeAll+0x38>
   11fdc:	e3a03000 	mov	r3, #0
   11fe0:	e58430fc 	str	r3, [r4, #252]	; 0xfc
   11fe4:	ef000000 	svc	0x00000000
   11fe8:	e3a04001 	mov	r4, #1
   11fec:	eaffffd7 	b	11f50 <xTaskResumeAll+0x3c>
   11ff0:	e59230f8 	ldr	r3, [r2, #248]	; 0xf8
   11ff4:	e3530000 	cmp	r3, #0
   11ff8:	0afffff7 	beq	11fdc <xTaskResumeAll+0xc8>
   11ffc:	ebffff6d 	bl	11db8 <vTaskIncrementTick>
   12000:	e59430f8 	ldr	r3, [r4, #248]	; 0xf8
   12004:	e2433001 	sub	r3, r3, #1
   12008:	e58430f8 	str	r3, [r4, #248]	; 0xf8
   1200c:	e59430f8 	ldr	r3, [r4, #248]	; 0xf8
   12010:	e3530000 	cmp	r3, #0
   12014:	1afffff8 	bne	11ffc <xTaskResumeAll+0xe8>
   12018:	eaffffef 	b	11fdc <xTaskResumeAll+0xc8>
   1201c:	000138b0 			; <UNDEFINED> instruction: 0x000138b0

00012020 <prvIdleTask>:
   12020:	e92d4070 	push	{r4, r5, r6, lr}
   12024:	e59f4088 	ldr	r4, [pc, #136]	; 120b4 <prvIdleTask+0x94>
   12028:	e1a05004 	mov	r5, r4
   1202c:	e59430ec 	ldr	r3, [r4, #236]	; 0xec
   12030:	e3530000 	cmp	r3, #0
   12034:	1a000006 	bne	12054 <prvIdleTask+0x34>
   12038:	e5943014 	ldr	r3, [r4, #20]
   1203c:	e3530001 	cmp	r3, #1
   12040:	9afffff9 	bls	1202c <prvIdleTask+0xc>
   12044:	ef000000 	svc	0x00000000
   12048:	e59430ec 	ldr	r3, [r4, #236]	; 0xec
   1204c:	e3530000 	cmp	r3, #0
   12050:	0afffff8 	beq	12038 <prvIdleTask+0x18>
   12054:	e59530f0 	ldr	r3, [r5, #240]	; 0xf0
   12058:	e2833001 	add	r3, r3, #1
   1205c:	e58530f0 	str	r3, [r5, #240]	; 0xf0
   12060:	e59560b4 	ldr	r6, [r5, #180]	; 0xb4
   12064:	ebffffaa 	bl	11f14 <xTaskResumeAll>
   12068:	e3560000 	cmp	r6, #0
   1206c:	0afffff1 	beq	12038 <prvIdleTask+0x18>
   12070:	ebfff9e7 	bl	10814 <vPortEnterCritical>
   12074:	e59530c0 	ldr	r3, [r5, #192]	; 0xc0
   12078:	e593600c 	ldr	r6, [r3, #12]
   1207c:	e2860004 	add	r0, r6, #4
   12080:	ebfffbd7 	bl	10fe4 <vListRemove>
   12084:	e5953010 	ldr	r3, [r5, #16]
   12088:	e2433001 	sub	r3, r3, #1
   1208c:	e5853010 	str	r3, [r5, #16]
   12090:	e59530ec 	ldr	r3, [r5, #236]	; 0xec
   12094:	e2433001 	sub	r3, r3, #1
   12098:	e58530ec 	str	r3, [r5, #236]	; 0xec
   1209c:	ebfff9e7 	bl	10840 <vPortExitCritical>
   120a0:	e5960030 	ldr	r0, [r6, #48]	; 0x30
   120a4:	ebfffa6a 	bl	10a54 <vPortFree>
   120a8:	e1a00006 	mov	r0, r6
   120ac:	ebfffa68 	bl	10a54 <vPortFree>
   120b0:	eaffffe0 	b	12038 <prvIdleTask+0x18>
   120b4:	000138b0 			; <UNDEFINED> instruction: 0x000138b0

000120b8 <vTaskDelay>:
   120b8:	e3500000 	cmp	r0, #0
   120bc:	e92d4010 	push	{r4, lr}
   120c0:	1a000001 	bne	120cc <vTaskDelay+0x14>
   120c4:	ef000000 	svc	0x00000000
   120c8:	e8bd8010 	pop	{r4, pc}
   120cc:	e59f3034 	ldr	r3, [pc, #52]	; 12108 <vTaskDelay+0x50>
   120d0:	e59320f0 	ldr	r2, [r3, #240]	; 0xf0
   120d4:	e2822001 	add	r2, r2, #1
   120d8:	e58320f0 	str	r2, [r3, #240]	; 0xf0
   120dc:	e5934004 	ldr	r4, [r3, #4]
   120e0:	e5933000 	ldr	r3, [r3]
   120e4:	e0804004 	add	r4, r0, r4
   120e8:	e2830004 	add	r0, r3, #4
   120ec:	ebfffbbc 	bl	10fe4 <vListRemove>
   120f0:	e1a00004 	mov	r0, r4
   120f4:	ebfffd88 	bl	1171c <prvAddCurrentTaskToDelayedList>
   120f8:	ebffff85 	bl	11f14 <xTaskResumeAll>
   120fc:	e3500000 	cmp	r0, #0
   12100:	18bd8010 	popne	{r4, pc}
   12104:	eaffffee 	b	120c4 <vTaskDelay+0xc>
   12108:	000138b0 			; <UNDEFINED> instruction: 0x000138b0

0001210c <vTaskDelayUntil>:
   1210c:	e59f3070 	ldr	r3, [pc, #112]	; 12184 <vTaskDelayUntil+0x78>
   12110:	e92d4010 	push	{r4, lr}
   12114:	e593c0f0 	ldr	ip, [r3, #240]	; 0xf0
   12118:	e5902000 	ldr	r2, [r0]
   1211c:	e28cc001 	add	ip, ip, #1
   12120:	e583c0f0 	str	ip, [r3, #240]	; 0xf0
   12124:	e593c004 	ldr	ip, [r3, #4]
   12128:	e0814002 	add	r4, r1, r2
   1212c:	e152000c 	cmp	r2, ip
   12130:	9a000007 	bls	12154 <vTaskDelayUntil+0x48>
   12134:	e1520004 	cmp	r2, r4
   12138:	8a000007 	bhi	1215c <vTaskDelayUntil+0x50>
   1213c:	e5804000 	str	r4, [r0]
   12140:	ebffff73 	bl	11f14 <xTaskResumeAll>
   12144:	e3500000 	cmp	r0, #0
   12148:	18bd8010 	popne	{r4, pc}
   1214c:	ef000000 	svc	0x00000000
   12150:	e8bd8010 	pop	{r4, pc}
   12154:	e1520004 	cmp	r2, r4
   12158:	8a000002 	bhi	12168 <vTaskDelayUntil+0x5c>
   1215c:	e5932004 	ldr	r2, [r3, #4]
   12160:	e1540002 	cmp	r4, r2
   12164:	9afffff4 	bls	1213c <vTaskDelayUntil+0x30>
   12168:	e5933000 	ldr	r3, [r3]
   1216c:	e5804000 	str	r4, [r0]
   12170:	e2830004 	add	r0, r3, #4
   12174:	ebfffb9a 	bl	10fe4 <vListRemove>
   12178:	e1a00004 	mov	r0, r4
   1217c:	ebfffd66 	bl	1171c <prvAddCurrentTaskToDelayedList>
   12180:	eaffffee 	b	12140 <vTaskDelayUntil+0x34>
   12184:	000138b0 			; <UNDEFINED> instruction: 0x000138b0

00012188 <vTaskSetApplicationTaskTag>:
   12188:	e3500000 	cmp	r0, #0
   1218c:	e92d4038 	push	{r3, r4, r5, lr}
   12190:	059f3018 	ldreq	r3, [pc, #24]	; 121b0 <vTaskSetApplicationTaskTag+0x28>
   12194:	e1a04001 	mov	r4, r1
   12198:	05935000 	ldreq	r5, [r3]
   1219c:	11a05000 	movne	r5, r0
   121a0:	ebfff99b 	bl	10814 <vPortEnterCritical>
   121a4:	e5854044 	str	r4, [r5, #68]	; 0x44
   121a8:	e8bd4038 	pop	{r3, r4, r5, lr}
   121ac:	eafff9a3 	b	10840 <vPortExitCritical>
   121b0:	000138b0 			; <UNDEFINED> instruction: 0x000138b0

000121b4 <xTaskGetApplicationTaskTag>:
   121b4:	e3500000 	cmp	r0, #0
   121b8:	059f301c 	ldreq	r3, [pc, #28]	; 121dc <xTaskGetApplicationTaskTag+0x28>
   121bc:	e92d4010 	push	{r4, lr}
   121c0:	05934000 	ldreq	r4, [r3]
   121c4:	11a04000 	movne	r4, r0
   121c8:	ebfff991 	bl	10814 <vPortEnterCritical>
   121cc:	e5944044 	ldr	r4, [r4, #68]	; 0x44
   121d0:	ebfff99a 	bl	10840 <vPortExitCritical>
   121d4:	e1a00004 	mov	r0, r4
   121d8:	e8bd8010 	pop	{r4, pc}
   121dc:	000138b0 			; <UNDEFINED> instruction: 0x000138b0

000121e0 <xTaskCallApplicationTaskHook>:
   121e0:	e3500000 	cmp	r0, #0
   121e4:	e92d4008 	push	{r3, lr}
   121e8:	059f3024 	ldreq	r3, [pc, #36]	; 12214 <xTaskCallApplicationTaskHook+0x34>
   121ec:	11a03000 	movne	r3, r0
   121f0:	05933000 	ldreq	r3, [r3]
   121f4:	e5933044 	ldr	r3, [r3, #68]	; 0x44
   121f8:	e3530000 	cmp	r3, #0
   121fc:	0a000002 	beq	1220c <xTaskCallApplicationTaskHook+0x2c>
   12200:	e1a00001 	mov	r0, r1
   12204:	e12fff33 	blx	r3
   12208:	e8bd8008 	pop	{r3, pc}
   1220c:	e1a00003 	mov	r0, r3
   12210:	e8bd8008 	pop	{r3, pc}
   12214:	000138b0 			; <UNDEFINED> instruction: 0x000138b0

00012218 <vTaskSwitchContext>:
   12218:	e59f3078 	ldr	r3, [pc, #120]	; 12298 <vTaskSwitchContext+0x80>
   1221c:	e59320f0 	ldr	r2, [r3, #240]	; 0xf0
   12220:	e3520000 	cmp	r2, #0
   12224:	13a02001 	movne	r2, #1
   12228:	158320fc 	strne	r2, [r3, #252]	; 0xfc
   1222c:	0a000003 	beq	12240 <vTaskSwitchContext+0x28>
   12230:	e12fff1e 	bx	lr
   12234:	e59320e8 	ldr	r2, [r3, #232]	; 0xe8
   12238:	e2422001 	sub	r2, r2, #1
   1223c:	e58320e8 	str	r2, [r3, #232]	; 0xe8
   12240:	e59320e8 	ldr	r2, [r3, #232]	; 0xe8
   12244:	e0822102 	add	r2, r2, r2, lsl #2
   12248:	e0832102 	add	r2, r3, r2, lsl #2
   1224c:	e5922014 	ldr	r2, [r2, #20]
   12250:	e3520000 	cmp	r2, #0
   12254:	0afffff6 	beq	12234 <vTaskSwitchContext+0x1c>
   12258:	e59310e8 	ldr	r1, [r3, #232]	; 0xe8
   1225c:	e59f2038 	ldr	r2, [pc, #56]	; 1229c <vTaskSwitchContext+0x84>
   12260:	e0811101 	add	r1, r1, r1, lsl #2
   12264:	e0821101 	add	r1, r2, r1, lsl #2
   12268:	e5912004 	ldr	r2, [r1, #4]
   1226c:	e2810008 	add	r0, r1, #8
   12270:	e5922004 	ldr	r2, [r2, #4]
   12274:	e1520000 	cmp	r2, r0
   12278:	e5812004 	str	r2, [r1, #4]
   1227c:	0a000002 	beq	1228c <vTaskSwitchContext+0x74>
   12280:	e592200c 	ldr	r2, [r2, #12]
   12284:	e5832000 	str	r2, [r3]
   12288:	e12fff1e 	bx	lr
   1228c:	e5922004 	ldr	r2, [r2, #4]
   12290:	e5812004 	str	r2, [r1, #4]
   12294:	eafffff9 	b	12280 <vTaskSwitchContext+0x68>
   12298:	000138b0 			; <UNDEFINED> instruction: 0x000138b0
   1229c:	000138c4 	andeq	r3, r1, r4, asr #17

000122a0 <vTaskSuspend>:
   122a0:	e92d4070 	push	{r4, r5, r6, lr}
   122a4:	e1a04000 	mov	r4, r0
   122a8:	ebfff959 	bl	10814 <vPortEnterCritical>
   122ac:	e59f308c 	ldr	r3, [pc, #140]	; 12340 <vTaskSuspend+0xa0>
   122b0:	e5932000 	ldr	r2, [r3]
   122b4:	e1540002 	cmp	r4, r2
   122b8:	0a00001d 	beq	12334 <vTaskSuspend+0x94>
   122bc:	e3540000 	cmp	r4, #0
   122c0:	11a05004 	movne	r5, r4
   122c4:	0a00001a 	beq	12334 <vTaskSuspend+0x94>
   122c8:	e2856004 	add	r6, r5, #4
   122cc:	e1a00006 	mov	r0, r6
   122d0:	ebfffb43 	bl	10fe4 <vListRemove>
   122d4:	e5953028 	ldr	r3, [r5, #40]	; 0x28
   122d8:	e3530000 	cmp	r3, #0
   122dc:	0a000001 	beq	122e8 <vTaskSuspend+0x48>
   122e0:	e2850018 	add	r0, r5, #24
   122e4:	ebfffb3e 	bl	10fe4 <vListRemove>
   122e8:	e59f5050 	ldr	r5, [pc, #80]	; 12340 <vTaskSuspend+0xa0>
   122ec:	e1a01006 	mov	r1, r6
   122f0:	e28500c8 	add	r0, r5, #200	; 0xc8
   122f4:	ebfffb16 	bl	10f54 <vListInsertEnd>
   122f8:	ebfff950 	bl	10840 <vPortExitCritical>
   122fc:	e3540000 	cmp	r4, #0
   12300:	18bd8070 	popne	{r4, r5, r6, pc}
   12304:	e59530dc 	ldr	r3, [r5, #220]	; 0xdc
   12308:	e3530000 	cmp	r3, #0
   1230c:	1a000006 	bne	1232c <vTaskSuspend+0x8c>
   12310:	e59520c8 	ldr	r2, [r5, #200]	; 0xc8
   12314:	e5953010 	ldr	r3, [r5, #16]
   12318:	e1520003 	cmp	r2, r3
   1231c:	05854000 	streq	r4, [r5]
   12320:	08bd8070 	popeq	{r4, r5, r6, pc}
   12324:	e8bd4070 	pop	{r4, r5, r6, lr}
   12328:	eaffffba 	b	12218 <vTaskSwitchContext>
   1232c:	ef000000 	svc	0x00000000
   12330:	e8bd8070 	pop	{r4, r5, r6, pc}
   12334:	e5935000 	ldr	r5, [r3]
   12338:	e3a04000 	mov	r4, #0
   1233c:	eaffffe1 	b	122c8 <vTaskSuspend+0x28>
   12340:	000138b0 			; <UNDEFINED> instruction: 0x000138b0

00012344 <vTaskPlaceOnEventList>:
   12344:	e92d4038 	push	{r3, r4, r5, lr}
   12348:	e59f4044 	ldr	r4, [pc, #68]	; 12394 <vTaskPlaceOnEventList+0x50>
   1234c:	e1a05001 	mov	r5, r1
   12350:	e5941000 	ldr	r1, [r4]
   12354:	e2811018 	add	r1, r1, #24
   12358:	ebfffb09 	bl	10f84 <vListInsert>
   1235c:	e5940000 	ldr	r0, [r4]
   12360:	e2800004 	add	r0, r0, #4
   12364:	ebfffb1e 	bl	10fe4 <vListRemove>
   12368:	e3750001 	cmn	r5, #1
   1236c:	0a000003 	beq	12380 <vTaskPlaceOnEventList+0x3c>
   12370:	e5940004 	ldr	r0, [r4, #4]
   12374:	e0850000 	add	r0, r5, r0
   12378:	e8bd4038 	pop	{r3, r4, r5, lr}
   1237c:	eafffce6 	b	1171c <prvAddCurrentTaskToDelayedList>
   12380:	e1a00004 	mov	r0, r4
   12384:	e49010c8 	ldr	r1, [r0], #200	; 0xc8
   12388:	e2811004 	add	r1, r1, #4
   1238c:	e8bd4038 	pop	{r3, r4, r5, lr}
   12390:	eafffaef 	b	10f54 <vListInsertEnd>
   12394:	000138b0 			; <UNDEFINED> instruction: 0x000138b0

00012398 <xTaskRemoveFromEventList>:
   12398:	e590300c 	ldr	r3, [r0, #12]
   1239c:	e92d4070 	push	{r4, r5, r6, lr}
   123a0:	e593500c 	ldr	r5, [r3, #12]
   123a4:	e59f4070 	ldr	r4, [pc, #112]	; 1241c <xTaskRemoveFromEventList+0x84>
   123a8:	e2856018 	add	r6, r5, #24
   123ac:	e1a00006 	mov	r0, r6
   123b0:	ebfffb0b 	bl	10fe4 <vListRemove>
   123b4:	e59430f0 	ldr	r3, [r4, #240]	; 0xf0
   123b8:	e3530000 	cmp	r3, #0
   123bc:	1a000012 	bne	1240c <xTaskRemoveFromEventList+0x74>
   123c0:	e2856004 	add	r6, r5, #4
   123c4:	e1a00006 	mov	r0, r6
   123c8:	ebfffb05 	bl	10fe4 <vListRemove>
   123cc:	e595302c 	ldr	r3, [r5, #44]	; 0x2c
   123d0:	e59420e8 	ldr	r2, [r4, #232]	; 0xe8
   123d4:	e59f0044 	ldr	r0, [pc, #68]	; 12420 <xTaskRemoveFromEventList+0x88>
   123d8:	e1530002 	cmp	r3, r2
   123dc:	858430e8 	strhi	r3, [r4, #232]	; 0xe8
   123e0:	e0833103 	add	r3, r3, r3, lsl #2
   123e4:	e0800103 	add	r0, r0, r3, lsl #2
   123e8:	e1a01006 	mov	r1, r6
   123ec:	ebfffad8 	bl	10f54 <vListInsertEnd>
   123f0:	e5943000 	ldr	r3, [r4]
   123f4:	e595002c 	ldr	r0, [r5, #44]	; 0x2c
   123f8:	e593302c 	ldr	r3, [r3, #44]	; 0x2c
   123fc:	e1500003 	cmp	r0, r3
   12400:	33a00000 	movcc	r0, #0
   12404:	23a00001 	movcs	r0, #1
   12408:	e8bd8070 	pop	{r4, r5, r6, pc}
   1240c:	e28400a0 	add	r0, r4, #160	; 0xa0
   12410:	e1a01006 	mov	r1, r6
   12414:	ebffface 	bl	10f54 <vListInsertEnd>
   12418:	eafffff4 	b	123f0 <xTaskRemoveFromEventList+0x58>
   1241c:	000138b0 			; <UNDEFINED> instruction: 0x000138b0
   12420:	000138c4 	andeq	r3, r1, r4, asr #17

00012424 <vTaskSetTimeOutState>:
   12424:	e59f300c 	ldr	r3, [pc, #12]	; 12438 <vTaskSetTimeOutState+0x14>
   12428:	e59320f4 	ldr	r2, [r3, #244]	; 0xf4
   1242c:	e5933004 	ldr	r3, [r3, #4]
   12430:	e880000c 	stm	r0, {r2, r3}
   12434:	e12fff1e 	bx	lr
   12438:	000138b0 			; <UNDEFINED> instruction: 0x000138b0

0001243c <xTaskCheckForTimeOut>:
   1243c:	e92d4038 	push	{r3, r4, r5, lr}
   12440:	e1a05001 	mov	r5, r1
   12444:	e1a04000 	mov	r4, r0
   12448:	ebfff8f1 	bl	10814 <vPortEnterCritical>
   1244c:	e5953000 	ldr	r3, [r5]
   12450:	e3730001 	cmn	r3, #1
   12454:	03a05000 	moveq	r5, #0
   12458:	0a000015 	beq	124b4 <xTaskCheckForTimeOut+0x78>
   1245c:	e59f2064 	ldr	r2, [pc, #100]	; 124c8 <xTaskCheckForTimeOut+0x8c>
   12460:	e5940000 	ldr	r0, [r4]
   12464:	e59210f4 	ldr	r1, [r2, #244]	; 0xf4
   12468:	e1500001 	cmp	r0, r1
   1246c:	e5941004 	ldr	r1, [r4, #4]
   12470:	0a000002 	beq	12480 <xTaskCheckForTimeOut+0x44>
   12474:	e5920004 	ldr	r0, [r2, #4]
   12478:	e1510000 	cmp	r1, r0
   1247c:	9a00000f 	bls	124c0 <xTaskCheckForTimeOut+0x84>
   12480:	e5920004 	ldr	r0, [r2, #4]
   12484:	e59f203c 	ldr	r2, [pc, #60]	; 124c8 <xTaskCheckForTimeOut+0x8c>
   12488:	e0610000 	rsb	r0, r1, r0
   1248c:	e1530000 	cmp	r3, r0
   12490:	9a00000a 	bls	124c0 <xTaskCheckForTimeOut+0x84>
   12494:	e592c004 	ldr	ip, [r2, #4]
   12498:	e59200f4 	ldr	r0, [r2, #244]	; 0xf4
   1249c:	e06c3003 	rsb	r3, ip, r3
   124a0:	e5922004 	ldr	r2, [r2, #4]
   124a4:	e0831001 	add	r1, r3, r1
   124a8:	e5851000 	str	r1, [r5]
   124ac:	e8840005 	stm	r4, {r0, r2}
   124b0:	e3a05000 	mov	r5, #0
   124b4:	ebfff8e1 	bl	10840 <vPortExitCritical>
   124b8:	e1a00005 	mov	r0, r5
   124bc:	e8bd8038 	pop	{r3, r4, r5, pc}
   124c0:	e3a05001 	mov	r5, #1
   124c4:	eafffffa 	b	124b4 <xTaskCheckForTimeOut+0x78>
   124c8:	000138b0 			; <UNDEFINED> instruction: 0x000138b0

000124cc <vTaskMissedYield>:
   124cc:	e59f3008 	ldr	r3, [pc, #8]	; 124dc <vTaskMissedYield+0x10>
   124d0:	e3a02001 	mov	r2, #1
   124d4:	e58320fc 	str	r2, [r3, #252]	; 0xfc
   124d8:	e12fff1e 	bx	lr
   124dc:	000138b0 			; <UNDEFINED> instruction: 0x000138b0

Disassembly of section .text.startup:

000124e0 <main>:
   124e0:	e52de004 	push	{lr}		; (str lr, [sp, #-4]!)
   124e4:	e3a04000 	mov	r4, #0
   124e8:	e24dd014 	sub	sp, sp, #20
   124ec:	ebfff753 	bl	10240 <init_uart>
   124f0:	ebfff7bd 	bl	103ec <LED_Init>
   124f4:	e59f1050 	ldr	r1, [pc, #80]	; 1254c <main+0x6c>
   124f8:	e3a02080 	mov	r2, #128	; 0x80
   124fc:	e1a03004 	mov	r3, r4
   12500:	e58d4000 	str	r4, [sp]
   12504:	e58d4004 	str	r4, [sp, #4]
   12508:	e58d4008 	str	r4, [sp, #8]
   1250c:	e58d400c 	str	r4, [sp, #12]
   12510:	e59f0038 	ldr	r0, [pc, #56]	; 12550 <main+0x70>
   12514:	ebfffc98 	bl	1177c <xTaskGenericCreate>
   12518:	e59f1034 	ldr	r1, [pc, #52]	; 12554 <main+0x74>
   1251c:	e3a02080 	mov	r2, #128	; 0x80
   12520:	e1a03004 	mov	r3, r4
   12524:	e58d4000 	str	r4, [sp]
   12528:	e58d4004 	str	r4, [sp, #4]
   1252c:	e58d4008 	str	r4, [sp, #8]
   12530:	e58d400c 	str	r4, [sp, #12]
   12534:	e59f001c 	ldr	r0, [pc, #28]	; 12558 <main+0x78>
   12538:	ebfffc8f 	bl	1177c <xTaskGenericCreate>
   1253c:	e59f0018 	ldr	r0, [pc, #24]	; 1255c <main+0x7c>
   12540:	ebfff79b 	bl	103b4 <print>
   12544:	ebfffddd 	bl	11cc0 <vTaskStartScheduler>
   12548:	eafffffe 	b	12548 <main+0x68>
   1254c:	0001258c 	andeq	r2, r1, ip, lsl #11
   12550:	000104b0 			; <UNDEFINED> instruction: 0x000104b0
   12554:	00012594 	muleq	r1, r4, r5
   12558:	00010454 	andeq	r0, r1, r4, asr r4
   1255c:	0001259c 	muleq	r1, ip, r5

Disassembly of section .rodata.str1.4:

00012560 <.rodata.str1.4>:
   12560:	73617420 	cmnvc	r1, #536870912	; 0x20000000
   12564:	0020326b 	eoreq	r3, r0, fp, ror #4
   12568:	73617420 	cmnvc	r1, #536870912	; 0x20000000
   1256c:	7220326b 	eorvc	r3, r0, #-1342177274	; 0xb0000006
   12570:	00206e75 	eoreq	r6, r0, r5, ror lr
   12574:	73617420 	cmnvc	r1, #536870912	; 0x20000000
   12578:	0020316b 	eoreq	r3, r0, fp, ror #2
   1257c:	73617420 	cmnvc	r1, #536870912	; 0x20000000
   12580:	2031206b 	eorscs	r2, r1, fp, rrx
   12584:	206e7572 	rsbcs	r7, lr, r2, ror r5
   12588:	00000000 	andeq	r0, r0, r0
   1258c:	5f44454c 	svcpl	0x0044454c
   12590:	00000030 	andeq	r0, r0, r0, lsr r0
   12594:	5f44454c 	svcpl	0x0044454c
   12598:	00000031 	andeq	r0, r0, r1, lsr r0
   1259c:	61742032 	cmnvs	r4, r2, lsr r0
   125a0:	20736b73 	rsbscs	r6, r3, r3, ror fp
   125a4:	61657263 	cmnvs	r5, r3, ror #4
   125a8:	20646574 	rsbcs	r6, r4, r4, ror r5
   125ac:	00000000 	andeq	r0, r0, r0
   125b0:	454c4449 	strbmi	r4, [ip, #-1097]	; 0x449
   125b4:	00000000 	andeq	r0, r0, r0

Disassembly of section .data:

000125b8 <ulCriticalNesting>:
   125b8:	0000270f 	andeq	r2, r0, pc, lsl #14

000125bc <xFreeBytesRemaining>:
   125bc:	00001000 	andeq	r1, r0, r0

000125c0 <xNextTaskUnblockTime>:
   125c0:	ffffffff 			; <UNDEFINED> instruction: 0xffffffff

Disassembly of section .bss:

000125c8 <__bss_start>:
	...

00012808 <enabled>:
	...

00012814 <g_bStarted>:
   12814:	00000000 	andeq	r0, r0, r0

00012818 <xStart>:
	...

00012820 <pxEnd>:
	...

00012828 <xHeap>:
	...

00013828 <allocated>:
	...

00013830 <pxCurrentCoRoutine>:
   13830:	00000000 	andeq	r0, r0, r0

00013834 <pxReadyCoRoutineLists>:
	...

0001385c <xDelayedCoRoutineList1>:
	...

00013870 <xDelayedCoRoutineList2>:
	...

00013884 <xPendingReadyCoRoutineList>:
	...

00013898 <pxDelayedCoRoutineList>:
   13898:	00000000 	andeq	r0, r0, r0

0001389c <pxOverflowDelayedCoRoutineList>:
   1389c:	00000000 	andeq	r0, r0, r0

000138a0 <uxTopCoRoutineReadyPriority>:
   138a0:	00000000 	andeq	r0, r0, r0

000138a4 <xCoRoutineTickCount>:
   138a4:	00000000 	andeq	r0, r0, r0

000138a8 <xLastTickCount>:
   138a8:	00000000 	andeq	r0, r0, r0

000138ac <xPassedTicks>:
   138ac:	00000000 	andeq	r0, r0, r0

000138b0 <pxCurrentTCB>:
   138b0:	00000000 	andeq	r0, r0, r0

000138b4 <xTickCount>:
   138b4:	00000000 	andeq	r0, r0, r0

000138b8 <pxOverflowDelayedTaskList>:
   138b8:	00000000 	andeq	r0, r0, r0

000138bc <pxDelayedTaskList>:
   138bc:	00000000 	andeq	r0, r0, r0

000138c0 <uxCurrentNumberOfTasks>:
   138c0:	00000000 	andeq	r0, r0, r0

000138c4 <pxReadyTasksLists>:
	...

00013928 <xDelayedTaskList1>:
	...

0001393c <xDelayedTaskList2>:
	...

00013950 <xPendingReadyList>:
	...

00013964 <xTasksWaitingTermination>:
	...

00013978 <xSuspendedTaskList>:
	...

0001398c <xSchedulerRunning>:
   1398c:	00000000 	andeq	r0, r0, r0

00013990 <uxTopUsedPriority>:
   13990:	00000000 	andeq	r0, r0, r0

00013994 <uxTaskNumber>:
   13994:	00000000 	andeq	r0, r0, r0

00013998 <uxTopReadyPriority>:
   13998:	00000000 	andeq	r0, r0, r0

0001399c <uxTasksDeleted>:
   1399c:	00000000 	andeq	r0, r0, r0

000139a0 <uxSchedulerSuspended>:
   139a0:	00000000 	andeq	r0, r0, r0

000139a4 <xNumOfOverflows>:
   139a4:	00000000 	andeq	r0, r0, r0

000139a8 <uxMissedTicks>:
   139a8:	00000000 	andeq	r0, r0, r0

000139ac <xMissedYield>:
   139ac:	00000000 	andeq	r0, r0, r0

Disassembly of section .ARM.attributes:

00000000 <.ARM.attributes>:
   0:	00003341 	andeq	r3, r0, r1, asr #6
   4:	61656100 	cmnvs	r5, r0, lsl #2
   8:	01006962 	tsteq	r0, r2, ror #18
   c:	00000029 	andeq	r0, r0, r9, lsr #32
  10:	4d524105 	ldfmie	f4, [r2, #-20]	; 0xffffffec
  14:	36373131 			; <UNDEFINED> instruction: 0x36373131
  18:	2d465a4a 	vstrcs	s11, [r6, #-296]	; 0xfffffed8
  1c:	07060053 	smlsdeq	r6, r3, r0, r0
  20:	01090108 	tsteq	r9, r8, lsl #2
  24:	01140412 	tsteq	r4, r2, lsl r4
  28:	03170115 	tsteq	r7, #1073741829	; 0x40000005
  2c:	011a0118 	tsteq	sl, r8, lsl r1
  30:	01440122 	cmpeq	r4, r2, lsr #2

Disassembly of section .comment:

00000000 <.comment>:
   0:	3a434347 	bcc	10d0d24 <__bss_end+0x10bd374>
   4:	4e472820 	cdpmi	8, 4, cr2, cr7, cr0, {1}
   8:	6f542055 	svcvs	0x00542055
   c:	20736c6f 	rsbscs	r6, r3, pc, ror #24
  10:	20726f66 	rsbscs	r6, r2, r6, ror #30
  14:	204d5241 	subcs	r5, sp, r1, asr #4
  18:	65626d45 	strbvs	r6, [r2, #-3397]!	; 0xd45
  1c:	64656464 	strbtvs	r6, [r5], #-1124	; 0x464
  20:	6f725020 	svcvs	0x00725020
  24:	73736563 	cmnvc	r3, #415236096	; 0x18c00000
  28:	2973726f 	ldmdbcs	r3!, {r0, r1, r2, r3, r5, r6, r9, ip, sp, lr}^
  2c:	372e3420 	strcc	r3, [lr, -r0, lsr #8]!
  30:	3220342e 	eorcc	r3, r0, #771751936	; 0x2e000000
  34:	30333130 	eorscc	r3, r3, r0, lsr r1
  38:	20333139 	eorscs	r3, r3, r9, lsr r1
  3c:	6c657228 	sfmvs	f7, 2, [r5], #-160	; 0xffffff60
  40:	65736165 	ldrbvs	r6, [r3, #-357]!	; 0x165
  44:	415b2029 	cmpmi	fp, r9, lsr #32
  48:	652f4d52 	strvs	r4, [pc, #-3410]!	; fffff2fe <_estack+0xf7fef2fe>
  4c:	6465626d 	strbtvs	r6, [r5], #-621	; 0x26d
  50:	2d646564 	cfstr64cs	mvdx6, [r4, #-400]!	; 0xfffffe70
  54:	2d375f34 	ldccs	15, cr5, [r7, #-208]!	; 0xffffff30
  58:	6e617262 	cdpvs	2, 6, cr7, cr1, cr2, {3}
  5c:	72206863 	eorvc	r6, r0, #6488064	; 0x630000
  60:	73697665 	cmnvc	r9, #105906176	; 0x6500000
  64:	206e6f69 	rsbcs	r6, lr, r9, ror #30
  68:	36323032 			; <UNDEFINED> instruction: 0x36323032
  6c:	005d3130 	subseq	r3, sp, r0, lsr r1
